
a20.o:     file format elf32-i386


Disassembly of section .text:

00000000 <enable_A20>:
   0:	66 b8 01 24          	mov    $0x2401,%ax
   4:	cd 15                	int    $0x15
   6:	c3                   	ret    

atoi.o:     file format elf32-i386


Disassembly of section .text:

00000000 <atoi>:
#include <lib/string.h>

int atoi(const char* str){
   0:	55                   	push   %ebp
   1:	89 e5                	mov    %esp,%ebp
   3:	83 ec 08             	sub    $0x8,%esp

	return (int) strtol(str, 0, 10);
   6:	83 ec 04             	sub    $0x4,%esp
   9:	6a 0a                	push   $0xa
   b:	6a 00                	push   $0x0
   d:	ff 75 08             	pushl  0x8(%ebp)
  10:	e8 fc ff ff ff       	call   11 <atoi+0x11>
  15:	83 c4 10             	add    $0x10,%esp
  18:	c9                   	leave  
  19:	c3                   	ret    

clearScreen.o:     file format elf32-i386


Disassembly of section .text:

00000000 <clearScreen>:
#include <lib/stdio.h>
#include <monitor/monitor.h>

void clearScreen(){
   0:	55                   	push   %ebp
   1:	89 e5                	mov    %esp,%ebp
   3:	83 ec 08             	sub    $0x8,%esp
	monitor_clear();
   6:	e8 fc ff ff ff       	call   7 <clearScreen+0x7>
   b:	90                   	nop
   c:	c9                   	leave  
   d:	c3                   	ret    

cpu.o:     file format elf32-i386


Disassembly of section .text:

00000000 <cpuid>:
#include <hal/idt.h>

static void cpuid(int code, uint32_t* a, uint32_t* b, uint32_t* c, uint32_t* d);

static inline void cpuid(int code, uint32_t* a, uint32_t* b, uint32_t* c, uint32_t* d)
{
   0:	55                   	push   %ebp
   1:	89 e5                	mov    %esp,%ebp
   3:	56                   	push   %esi
   4:	53                   	push   %ebx
    asm volatile ( "cpuid" : "=a"(*a),"=b"(*b),"=c"(*c),"=d"(*d): "0"(code));
   5:	8b 45 08             	mov    0x8(%ebp),%eax
   8:	0f a2                	cpuid  
   a:	8b 75 0c             	mov    0xc(%ebp),%esi
   d:	89 06                	mov    %eax,(%esi)
   f:	8b 45 10             	mov    0x10(%ebp),%eax
  12:	89 18                	mov    %ebx,(%eax)
  14:	8b 45 14             	mov    0x14(%ebp),%eax
  17:	89 08                	mov    %ecx,(%eax)
  19:	8b 45 18             	mov    0x18(%ebp),%eax
  1c:	89 10                	mov    %edx,(%eax)
}
  1e:	90                   	nop
  1f:	5b                   	pop    %ebx
  20:	5e                   	pop    %esi
  21:	5d                   	pop    %ebp
  22:	c3                   	ret    

00000023 <i86_cpu_initialize>:

int i86_cpu_initialize(){
  23:	55                   	push   %ebp
  24:	89 e5                	mov    %esp,%ebp
  26:	83 ec 08             	sub    $0x8,%esp
	i86_gdt_initialize();
  29:	e8 fc ff ff ff       	call   2a <i86_cpu_initialize+0x7>
	i86_idt_initialize(0x8);
  2e:	83 ec 0c             	sub    $0xc,%esp
  31:	6a 08                	push   $0x8
  33:	e8 fc ff ff ff       	call   34 <i86_cpu_initialize+0x11>
  38:	83 c4 10             	add    $0x10,%esp

	return 0;
  3b:	b8 00 00 00 00       	mov    $0x0,%eax
}
  40:	c9                   	leave  
  41:	c3                   	ret    

00000042 <i86_cpu_shutdown>:

void i86_cpu_shutdown(){
  42:	55                   	push   %ebp
  43:	89 e5                	mov    %esp,%ebp
	// Do nothing yet.
}
  45:	90                   	nop
  46:	5d                   	pop    %ebp
  47:	c3                   	ret    

00000048 <i86_cpu_get_vendor>:

const char* i86_cpu_get_vendor(){
  48:	55                   	push   %ebp
  49:	89 e5                	mov    %esp,%ebp
  4b:	83 ec 20             	sub    $0x20,%esp
	union{
		uint32_t reg;
		char byte[4]; 
	}edx;

	cpuid(0, &(eax.reg), &(ebx.reg), &(ecx.reg), &(edx.reg));
  4e:	8d 45 ec             	lea    -0x14(%ebp),%eax
  51:	50                   	push   %eax
  52:	8d 45 f0             	lea    -0x10(%ebp),%eax
  55:	50                   	push   %eax
  56:	8d 45 f4             	lea    -0xc(%ebp),%eax
  59:	50                   	push   %eax
  5a:	8d 45 f8             	lea    -0x8(%ebp),%eax
  5d:	50                   	push   %eax
  5e:	6a 00                	push   $0x0
  60:	e8 9b ff ff ff       	call   0 <cpuid>
  65:	83 c4 14             	add    $0x14,%esp

	for(int i = 0; i < 4; ++i)
  68:	c7 45 fc 00 00 00 00 	movl   $0x0,-0x4(%ebp)
  6f:	eb 48                	jmp    b9 <i86_cpu_get_vendor+0x71>
	{
		vendor[i] = ebx.byte[i];
  71:	8d 55 f4             	lea    -0xc(%ebp),%edx
  74:	8b 45 fc             	mov    -0x4(%ebp),%eax
  77:	01 d0                	add    %edx,%eax
  79:	0f b6 00             	movzbl (%eax),%eax
  7c:	8b 55 fc             	mov    -0x4(%ebp),%edx
  7f:	81 c2 00 00 00 00    	add    $0x0,%edx
  85:	88 02                	mov    %al,(%edx)
		vendor[i+4] = edx.byte[i];
  87:	8b 45 fc             	mov    -0x4(%ebp),%eax
  8a:	8d 50 04             	lea    0x4(%eax),%edx
  8d:	8d 4d ec             	lea    -0x14(%ebp),%ecx
  90:	8b 45 fc             	mov    -0x4(%ebp),%eax
  93:	01 c8                	add    %ecx,%eax
  95:	0f b6 00             	movzbl (%eax),%eax
  98:	88 82 00 00 00 00    	mov    %al,0x0(%edx)
		vendor[i+8] = ecx.byte[i];
  9e:	8b 45 fc             	mov    -0x4(%ebp),%eax
  a1:	8d 50 08             	lea    0x8(%eax),%edx
  a4:	8d 4d f0             	lea    -0x10(%ebp),%ecx
  a7:	8b 45 fc             	mov    -0x4(%ebp),%eax
  aa:	01 c8                	add    %ecx,%eax
  ac:	0f b6 00             	movzbl (%eax),%eax
  af:	88 82 00 00 00 00    	mov    %al,0x0(%edx)
		char byte[4]; 
	}edx;

	cpuid(0, &(eax.reg), &(ebx.reg), &(ecx.reg), &(edx.reg));

	for(int i = 0; i < 4; ++i)
  b5:	83 45 fc 01          	addl   $0x1,-0x4(%ebp)
  b9:	83 7d fc 03          	cmpl   $0x3,-0x4(%ebp)
  bd:	7e b2                	jle    71 <i86_cpu_get_vendor+0x29>
		vendor[i] = ebx.byte[i];
		vendor[i+4] = edx.byte[i];
		vendor[i+8] = ecx.byte[i];
	}

	return (const char*) vendor;
  bf:	b8 00 00 00 00       	mov    $0x0,%eax

  c4:	c9                   	leave  
  c5:	c3                   	ret    

dma.o:     file format elf32-i386


Disassembly of section .text:

00000000 <dma_set_mode>:
#include <hal/dma.h>

void dma_set_mode(uint8_t channel, uint8_t mode){
   0:	55                   	push   %ebp
   1:	89 e5                	mov    %esp,%ebp
   3:	83 ec 28             	sub    $0x28,%esp
   6:	8b 55 08             	mov    0x8(%ebp),%edx
   9:	8b 45 0c             	mov    0xc(%ebp),%eax
   c:	88 55 e4             	mov    %dl,-0x1c(%ebp)
   f:	88 45 e0             	mov    %al,-0x20(%ebp)

	int dma = (channel < 4) ? 0 : 1;
  12:	80 7d e4 03          	cmpb   $0x3,-0x1c(%ebp)
  16:	0f 97 c0             	seta   %al
  19:	0f b6 c0             	movzbl %al,%eax
  1c:	89 45 f4             	mov    %eax,-0xc(%ebp)
	int chan = (dma == 0) ? channel : channel - 4;
  1f:	83 7d f4 00          	cmpl   $0x0,-0xc(%ebp)
  23:	75 06                	jne    2b <dma_set_mode+0x2b>
  25:	0f b6 45 e4          	movzbl -0x1c(%ebp),%eax
  29:	eb 07                	jmp    32 <dma_set_mode+0x32>
  2b:	0f b6 45 e4          	movzbl -0x1c(%ebp),%eax
  2f:	83 e8 04             	sub    $0x4,%eax
  32:	89 45 f0             	mov    %eax,-0x10(%ebp)

	dma_mask_channel(channel);
  35:	0f b6 45 e4          	movzbl -0x1c(%ebp),%eax
  39:	83 ec 0c             	sub    $0xc,%esp
  3c:	50                   	push   %eax
  3d:	e8 fc ff ff ff       	call   3e <dma_set_mode+0x3e>
  42:	83 c4 10             	add    $0x10,%esp
	outportb((channel < 4) ? DMA0_MODE_REG : DMA1_MODE_REG, chan | mode);
  45:	0f b6 45 e0          	movzbl -0x20(%ebp),%eax
  49:	0b 45 f0             	or     -0x10(%ebp),%eax
  4c:	80 7d e4 03          	cmpb   $0x3,-0x1c(%ebp)
  50:	77 07                	ja     59 <dma_set_mode+0x59>
  52:	ba 0b 00 00 00       	mov    $0xb,%edx
  57:	eb 05                	jmp    5e <dma_set_mode+0x5e>
  59:	ba d6 00 00 00       	mov    $0xd6,%edx
  5e:	83 ec 08             	sub    $0x8,%esp
  61:	50                   	push   %eax
  62:	52                   	push   %edx
  63:	e8 fc ff ff ff       	call   64 <dma_set_mode+0x64>
  68:	83 c4 10             	add    $0x10,%esp
	dma_unmask_all(dma);	
  6b:	83 ec 0c             	sub    $0xc,%esp
  6e:	ff 75 f4             	pushl  -0xc(%ebp)
  71:	e8 fc ff ff ff       	call   72 <dma_set_mode+0x72>
  76:	83 c4 10             	add    $0x10,%esp
}
  79:	90                   	nop
  7a:	c9                   	leave  
  7b:	c3                   	ret    

0000007c <dma_set_read>:

void dma_set_read(uint8_t channel){
  7c:	55                   	push   %ebp
  7d:	89 e5                	mov    %esp,%ebp
  7f:	83 ec 18             	sub    $0x18,%esp
  82:	8b 45 08             	mov    0x8(%ebp),%eax
  85:	88 45 f4             	mov    %al,-0xc(%ebp)

	dma_set_mode (channel,	DMA_MODE_READ_TRANSFER | DMA_MODE_TRANSFER_SINGLE);
  88:	0f b6 45 f4          	movzbl -0xc(%ebp),%eax
  8c:	83 ec 08             	sub    $0x8,%esp
  8f:	6a 44                	push   $0x44
  91:	50                   	push   %eax
  92:	e8 fc ff ff ff       	call   93 <dma_set_read+0x17>
  97:	83 c4 10             	add    $0x10,%esp
}
  9a:	90                   	nop
  9b:	c9                   	leave  
  9c:	c3                   	ret    

0000009d <dma_set_write>:

void dma_set_write(uint8_t channel){
  9d:	55                   	push   %ebp
  9e:	89 e5                	mov    %esp,%ebp
  a0:	83 ec 18             	sub    $0x18,%esp
  a3:	8b 45 08             	mov    0x8(%ebp),%eax
  a6:	88 45 f4             	mov    %al,-0xc(%ebp)

	dma_set_mode (channel,
  a9:	0f b6 45 f4          	movzbl -0xc(%ebp),%eax
  ad:	83 ec 08             	sub    $0x8,%esp
  b0:	6a 48                	push   $0x48
  b2:	50                   	push   %eax
  b3:	e8 fc ff ff ff       	call   b4 <dma_set_write+0x17>
  b8:	83 c4 10             	add    $0x10,%esp
		DMA_MODE_WRITE_TRANSFER | DMA_MODE_TRANSFER_SINGLE);
}
  bb:	90                   	nop
  bc:	c9                   	leave  
  bd:	c3                   	ret    

000000be <dma_set_address>:

void dma_set_address(uint8_t channel, uint8_t low, uint8_t high){
  be:	55                   	push   %ebp
  bf:	89 e5                	mov    %esp,%ebp
  c1:	83 ec 28             	sub    $0x28,%esp
  c4:	8b 4d 08             	mov    0x8(%ebp),%ecx
  c7:	8b 55 0c             	mov    0xc(%ebp),%edx
  ca:	8b 45 10             	mov    0x10(%ebp),%eax
  cd:	88 4d e4             	mov    %cl,-0x1c(%ebp)
  d0:	88 55 e0             	mov    %dl,-0x20(%ebp)
  d3:	88 45 dc             	mov    %al,-0x24(%ebp)

	if(channel > 8)
  d6:	80 7d e4 08          	cmpb   $0x8,-0x1c(%ebp)
  da:	0f 87 83 00 00 00    	ja     163 <dma_set_address+0xa5>
		return;

	uint16_t port = 0;
  e0:	66 c7 45 f6 00 00    	movw   $0x0,-0xa(%ebp)

	switch(channel){
  e6:	0f b6 45 e4          	movzbl -0x1c(%ebp),%eax
  ea:	83 f8 07             	cmp    $0x7,%eax
  ed:	77 77                	ja     166 <dma_set_address+0xa8>
  ef:	8b 04 85 00 00 00 00 	mov    0x0(,%eax,4),%eax
  f6:	ff e0                	jmp    *%eax

		case 0:
			port = DMA0_CH0_ADDR_REG;
  f8:	66 c7 45 f6 00 00    	movw   $0x0,-0xa(%ebp)
			break;
  fe:	eb 37                	jmp    137 <dma_set_address+0x79>
		case 1:
			port = DMA0_CH1_ADDR_REG;
 100:	66 c7 45 f6 02 00    	movw   $0x2,-0xa(%ebp)
			break;
 106:	eb 2f                	jmp    137 <dma_set_address+0x79>
		case 2:
			port = DMA0_CH2_ADDR_REG;
 108:	66 c7 45 f6 04 00    	movw   $0x4,-0xa(%ebp)
			break;
 10e:	eb 27                	jmp    137 <dma_set_address+0x79>
		case 3:
			port = DMA0_CH3_ADDR_REG;
 110:	66 c7 45 f6 06 00    	movw   $0x6,-0xa(%ebp)
			break;
 116:	eb 1f                	jmp    137 <dma_set_address+0x79>
		case 4:
			port = DMA1_CH4_ADDR_REG;
 118:	66 c7 45 f6 c0 00    	movw   $0xc0,-0xa(%ebp)
			break;
 11e:	eb 17                	jmp    137 <dma_set_address+0x79>
		case 5:
			port = DMA1_CH5_ADDR_REG;
 120:	66 c7 45 f6 c4 00    	movw   $0xc4,-0xa(%ebp)
			break;
 126:	eb 0f                	jmp    137 <dma_set_address+0x79>
		case 6:
			port = DMA1_CH6_ADDR_REG;
 128:	66 c7 45 f6 c8 00    	movw   $0xc8,-0xa(%ebp)
			break;
 12e:	eb 07                	jmp    137 <dma_set_address+0x79>
		case 7:
			port = DMA1_CH7_ADDR_REG;
 130:	66 c7 45 f6 cc 00    	movw   $0xcc,-0xa(%ebp)
			break;
 136:	90                   	nop
		default:
			return; // Should never happen
	}

	outportb(port, low);
 137:	0f b6 55 e0          	movzbl -0x20(%ebp),%edx
 13b:	0f b7 45 f6          	movzwl -0xa(%ebp),%eax
 13f:	83 ec 08             	sub    $0x8,%esp
 142:	52                   	push   %edx
 143:	50                   	push   %eax
 144:	e8 fc ff ff ff       	call   145 <dma_set_address+0x87>
 149:	83 c4 10             	add    $0x10,%esp
	outportb(port, high);
 14c:	0f b6 55 dc          	movzbl -0x24(%ebp),%edx
 150:	0f b7 45 f6          	movzwl -0xa(%ebp),%eax
 154:	83 ec 08             	sub    $0x8,%esp
 157:	52                   	push   %edx
 158:	50                   	push   %eax
 159:	e8 fc ff ff ff       	call   15a <dma_set_address+0x9c>
 15e:	83 c4 10             	add    $0x10,%esp
 161:	eb 04                	jmp    167 <dma_set_address+0xa9>
}

void dma_set_address(uint8_t channel, uint8_t low, uint8_t high){

	if(channel > 8)
		return;
 163:	90                   	nop
 164:	eb 01                	jmp    167 <dma_set_address+0xa9>
			break;
		case 7:
			port = DMA1_CH7_ADDR_REG;
			break;
		default:
			return; // Should never happen
 166:	90                   	nop
	}

	outportb(port, low);
	outportb(port, high);
}
 167:	c9                   	leave  
 168:	c3                   	ret    

00000169 <dma_set_count>:

void dma_set_count(uint8_t channel, uint8_t low, uint8_t high){
 169:	55                   	push   %ebp
 16a:	89 e5                	mov    %esp,%ebp
 16c:	83 ec 28             	sub    $0x28,%esp
 16f:	8b 4d 08             	mov    0x8(%ebp),%ecx
 172:	8b 55 0c             	mov    0xc(%ebp),%edx
 175:	8b 45 10             	mov    0x10(%ebp),%eax
 178:	88 4d e4             	mov    %cl,-0x1c(%ebp)
 17b:	88 55 e0             	mov    %dl,-0x20(%ebp)
 17e:	88 45 dc             	mov    %al,-0x24(%ebp)

	if(channel > 8)
 181:	80 7d e4 08          	cmpb   $0x8,-0x1c(%ebp)
 185:	0f 87 83 00 00 00    	ja     20e <dma_set_count+0xa5>
		return;

	uint16_t port = 0;
 18b:	66 c7 45 f6 00 00    	movw   $0x0,-0xa(%ebp)

	switch(channel){
 191:	0f b6 45 e4          	movzbl -0x1c(%ebp),%eax
 195:	83 f8 07             	cmp    $0x7,%eax
 198:	77 77                	ja     211 <dma_set_count+0xa8>
 19a:	8b 04 85 20 00 00 00 	mov    0x20(,%eax,4),%eax
 1a1:	ff e0                	jmp    *%eax

		case 0:
			port = DMA0_CH0_COUNT_REG;
 1a3:	66 c7 45 f6 01 00    	movw   $0x1,-0xa(%ebp)
			break;
 1a9:	eb 37                	jmp    1e2 <dma_set_count+0x79>
		case 1:
			port = DMA0_CH1_COUNT_REG;
 1ab:	66 c7 45 f6 03 00    	movw   $0x3,-0xa(%ebp)
			break;
 1b1:	eb 2f                	jmp    1e2 <dma_set_count+0x79>
		case 2:
			port = DMA0_CH2_COUNT_REG;
 1b3:	66 c7 45 f6 05 00    	movw   $0x5,-0xa(%ebp)
			break;
 1b9:	eb 27                	jmp    1e2 <dma_set_count+0x79>
		case 3:
			port = DMA0_CH3_COUNT_REG;
 1bb:	66 c7 45 f6 07 00    	movw   $0x7,-0xa(%ebp)
			break;
 1c1:	eb 1f                	jmp    1e2 <dma_set_count+0x79>
		case 4:
			port = DMA1_CH4_COUNT_REG;
 1c3:	66 c7 45 f6 c2 00    	movw   $0xc2,-0xa(%ebp)
			break;
 1c9:	eb 17                	jmp    1e2 <dma_set_count+0x79>
		case 5:
			port = DMA1_CH5_COUNT_REG;
 1cb:	66 c7 45 f6 c6 00    	movw   $0xc6,-0xa(%ebp)
			break;
 1d1:	eb 0f                	jmp    1e2 <dma_set_count+0x79>
		case 6:
			port = DMA1_CH6_COUNT_REG;
 1d3:	66 c7 45 f6 ca 00    	movw   $0xca,-0xa(%ebp)
			break;
 1d9:	eb 07                	jmp    1e2 <dma_set_count+0x79>
		case 7:
			port = DMA1_CH7_COUNT_REG;
 1db:	66 c7 45 f6 ce 00    	movw   $0xce,-0xa(%ebp)
			break;
 1e1:	90                   	nop
		default:
			return; // Should never happen
	}

	outportb(port, low);
 1e2:	0f b6 55 e0          	movzbl -0x20(%ebp),%edx
 1e6:	0f b7 45 f6          	movzwl -0xa(%ebp),%eax
 1ea:	83 ec 08             	sub    $0x8,%esp
 1ed:	52                   	push   %edx
 1ee:	50                   	push   %eax
 1ef:	e8 fc ff ff ff       	call   1f0 <dma_set_count+0x87>
 1f4:	83 c4 10             	add    $0x10,%esp
	outportb(port, high);	
 1f7:	0f b6 55 dc          	movzbl -0x24(%ebp),%edx
 1fb:	0f b7 45 f6          	movzwl -0xa(%ebp),%eax
 1ff:	83 ec 08             	sub    $0x8,%esp
 202:	52                   	push   %edx
 203:	50                   	push   %eax
 204:	e8 fc ff ff ff       	call   205 <dma_set_count+0x9c>
 209:	83 c4 10             	add    $0x10,%esp
 20c:	eb 04                	jmp    212 <dma_set_count+0xa9>
}

void dma_set_count(uint8_t channel, uint8_t low, uint8_t high){

	if(channel > 8)
		return;
 20e:	90                   	nop
 20f:	eb 01                	jmp    212 <dma_set_count+0xa9>
			break;
		case 7:
			port = DMA1_CH7_COUNT_REG;
			break;
		default:
			return; // Should never happen
 211:	90                   	nop
	}

	outportb(port, low);
	outportb(port, high);	
}
 212:	c9                   	leave  
 213:	c3                   	ret    

00000214 <dma_mask_channel>:

void dma_mask_channel(uint8_t channel){
 214:	55                   	push   %ebp
 215:	89 e5                	mov    %esp,%ebp
 217:	83 ec 18             	sub    $0x18,%esp
 21a:	8b 45 08             	mov    0x8(%ebp),%eax
 21d:	88 45 f4             	mov    %al,-0xc(%ebp)

	if(channel < 5){
 220:	80 7d f4 04          	cmpb   $0x4,-0xc(%ebp)
 224:	77 22                	ja     248 <dma_mask_channel+0x34>

		outportb(DMA0_SINGLE_CHAN_MASK_REG, (1 << (channel-1)));
 226:	0f b6 45 f4          	movzbl -0xc(%ebp),%eax
 22a:	83 e8 01             	sub    $0x1,%eax
 22d:	ba 01 00 00 00       	mov    $0x1,%edx
 232:	89 c1                	mov    %eax,%ecx
 234:	d3 e2                	shl    %cl,%edx
 236:	89 d0                	mov    %edx,%eax
 238:	83 ec 08             	sub    $0x8,%esp
 23b:	50                   	push   %eax
 23c:	6a 0a                	push   $0xa
 23e:	e8 fc ff ff ff       	call   23f <dma_mask_channel+0x2b>
 243:	83 c4 10             	add    $0x10,%esp
	} else {
		outportb(DMA1_SINGLE_CHAN_MASK_REG, (1 << (channel-5)));
	}
}
 246:	eb 23                	jmp    26b <dma_mask_channel+0x57>

	if(channel < 5){

		outportb(DMA0_SINGLE_CHAN_MASK_REG, (1 << (channel-1)));
	} else {
		outportb(DMA1_SINGLE_CHAN_MASK_REG, (1 << (channel-5)));
 248:	0f b6 45 f4          	movzbl -0xc(%ebp),%eax
 24c:	83 e8 05             	sub    $0x5,%eax
 24f:	ba 01 00 00 00       	mov    $0x1,%edx
 254:	89 c1                	mov    %eax,%ecx
 256:	d3 e2                	shl    %cl,%edx
 258:	89 d0                	mov    %edx,%eax
 25a:	83 ec 08             	sub    $0x8,%esp
 25d:	50                   	push   %eax
 25e:	68 d4 00 00 00       	push   $0xd4
 263:	e8 fc ff ff ff       	call   264 <dma_mask_channel+0x50>
 268:	83 c4 10             	add    $0x10,%esp
	}
}
 26b:	90                   	nop
 26c:	c9                   	leave  
 26d:	c3                   	ret    

0000026e <dma_unmask_channel>:

void dma_unmask_channel(uint8_t channel){
 26e:	55                   	push   %ebp
 26f:	89 e5                	mov    %esp,%ebp
 271:	83 ec 18             	sub    $0x18,%esp
 274:	8b 45 08             	mov    0x8(%ebp),%eax
 277:	88 45 f4             	mov    %al,-0xc(%ebp)

	if(channel < 5){
 27a:	80 7d f4 04          	cmpb   $0x4,-0xc(%ebp)
 27e:	77 14                	ja     294 <dma_unmask_channel+0x26>

		outportb(DMA0_SINGLE_CHAN_MASK_REG, channel);
 280:	0f b6 45 f4          	movzbl -0xc(%ebp),%eax
 284:	83 ec 08             	sub    $0x8,%esp
 287:	50                   	push   %eax
 288:	6a 0a                	push   $0xa
 28a:	e8 fc ff ff ff       	call   28b <dma_unmask_channel+0x1d>
 28f:	83 c4 10             	add    $0x10,%esp
	} else {
		outportb(DMA1_SINGLE_CHAN_MASK_REG, channel);
	}
}
 292:	eb 15                	jmp    2a9 <dma_unmask_channel+0x3b>

	if(channel < 5){

		outportb(DMA0_SINGLE_CHAN_MASK_REG, channel);
	} else {
		outportb(DMA1_SINGLE_CHAN_MASK_REG, channel);
 294:	0f b6 45 f4          	movzbl -0xc(%ebp),%eax
 298:	83 ec 08             	sub    $0x8,%esp
 29b:	50                   	push   %eax
 29c:	68 d4 00 00 00       	push   $0xd4
 2a1:	e8 fc ff ff ff       	call   2a2 <dma_unmask_channel+0x34>
 2a6:	83 c4 10             	add    $0x10,%esp
	}
}
 2a9:	90                   	nop
 2aa:	c9                   	leave  
 2ab:	c3                   	ret    

000002ac <dma_reset_flipflop>:

void dma_reset_flipflop(int dma){
 2ac:	55                   	push   %ebp
 2ad:	89 e5                	mov    %esp,%ebp
 2af:	83 ec 08             	sub    $0x8,%esp

	if(dma < 2)
 2b2:	83 7d 08 01          	cmpl   $0x1,0x8(%ebp)
 2b6:	7e 31                	jle    2e9 <dma_reset_flipflop+0x3d>
		return;

	if(dma == 0){
 2b8:	83 7d 08 00          	cmpl   $0x0,0x8(%ebp)
 2bc:	75 14                	jne    2d2 <dma_reset_flipflop+0x26>

		outportb(DMA0_CLEARBYTE_FLIPFLOP_REG, 0xFF);
 2be:	83 ec 08             	sub    $0x8,%esp
 2c1:	68 ff 00 00 00       	push   $0xff
 2c6:	6a 0c                	push   $0xc
 2c8:	e8 fc ff ff ff       	call   2c9 <dma_reset_flipflop+0x1d>
 2cd:	83 c4 10             	add    $0x10,%esp
 2d0:	eb 18                	jmp    2ea <dma_reset_flipflop+0x3e>
	} else {

		outportb(DMA1_CLEARBYTE_FLIPFLOP_REG, 0xFF);
 2d2:	83 ec 08             	sub    $0x8,%esp
 2d5:	68 ff 00 00 00       	push   $0xff
 2da:	68 d8 00 00 00       	push   $0xd8
 2df:	e8 fc ff ff ff       	call   2e0 <dma_reset_flipflop+0x34>
 2e4:	83 c4 10             	add    $0x10,%esp
 2e7:	eb 01                	jmp    2ea <dma_reset_flipflop+0x3e>
}

void dma_reset_flipflop(int dma){

	if(dma < 2)
		return;
 2e9:	90                   	nop
		outportb(DMA0_CLEARBYTE_FLIPFLOP_REG, 0xFF);
	} else {

		outportb(DMA1_CLEARBYTE_FLIPFLOP_REG, 0xFF);
	}
}
 2ea:	c9                   	leave  
 2eb:	c3                   	ret    

000002ec <dma_reset>:

void dma_reset(int dma){
 2ec:	55                   	push   %ebp
 2ed:	89 e5                	mov    %esp,%ebp
 2ef:	83 ec 08             	sub    $0x8,%esp

	outportb(DMA0_TEMP_REG, 0xFF);
 2f2:	83 ec 08             	sub    $0x8,%esp
 2f5:	68 ff 00 00 00       	push   $0xff
 2fa:	6a 0d                	push   $0xd
 2fc:	e8 fc ff ff ff       	call   2fd <dma_reset+0x11>
 301:	83 c4 10             	add    $0x10,%esp
}
 304:	90                   	nop
 305:	c9                   	leave  
 306:	c3                   	ret    

00000307 <dma_set_external_page_register>:

void dma_set_external_page_register(uint8_t reg, uint8_t val){
 307:	55                   	push   %ebp
 308:	89 e5                	mov    %esp,%ebp
 30a:	83 ec 28             	sub    $0x28,%esp
 30d:	8b 55 08             	mov    0x8(%ebp),%edx
 310:	8b 45 0c             	mov    0xc(%ebp),%eax
 313:	88 55 e4             	mov    %dl,-0x1c(%ebp)
 316:	88 45 e0             	mov    %al,-0x20(%ebp)
	
	if (reg > 14)
 319:	80 7d e4 0e          	cmpb   $0xe,-0x1c(%ebp)
 31d:	77 5e                	ja     37d <dma_set_external_page_register+0x76>
		return;

	unsigned short port = 0;
 31f:	66 c7 45 f6 00 00    	movw   $0x0,-0xa(%ebp)
	switch ( reg ) {
 325:	0f b6 45 e4          	movzbl -0x1c(%ebp),%eax
 329:	83 f8 07             	cmp    $0x7,%eax
 32c:	77 38                	ja     366 <dma_set_external_page_register+0x5f>
 32e:	8b 04 85 40 00 00 00 	mov    0x40(,%eax,4),%eax
 335:	ff e0                	jmp    *%eax

		case 1: {port = DMA_PAGE_CHAN1_ADDRBYTE2; break;}
 337:	66 c7 45 f6 83 00    	movw   $0x83,-0xa(%ebp)
 33d:	eb 27                	jmp    366 <dma_set_external_page_register+0x5f>
		case 2: {port = DMA_PAGE_CHAN2_ADDRBYTE2; break;}
 33f:	66 c7 45 f6 81 00    	movw   $0x81,-0xa(%ebp)
 345:	eb 1f                	jmp    366 <dma_set_external_page_register+0x5f>
		case 3: {port = DMA_PAGE_CHAN3_ADDRBYTE2; break;}
 347:	66 c7 45 f6 82 00    	movw   $0x82,-0xa(%ebp)
 34d:	eb 17                	jmp    366 <dma_set_external_page_register+0x5f>
		case 4: {return;}//! nothing should ever write to register 4
		case 5: {port = DMA_PAGE_CHAN5_ADDRBYTE2; break;}
 34f:	66 c7 45 f6 89 00    	movw   $0x89,-0xa(%ebp)
 355:	eb 0f                	jmp    366 <dma_set_external_page_register+0x5f>
		case 6: {port = DMA_PAGE_CHAN6_ADDRBYTE2; break;}
 357:	66 c7 45 f6 87 00    	movw   $0x87,-0xa(%ebp)
 35d:	eb 07                	jmp    366 <dma_set_external_page_register+0x5f>
		case 7: {port = DMA_PAGE_CHAN7_ADDRBYTE2; break;}
 35f:	66 c7 45 f6 88 00    	movw   $0x88,-0xa(%ebp)
 365:	90                   	nop
	}

	outportb(port, val);
 366:	0f b6 55 e0          	movzbl -0x20(%ebp),%edx
 36a:	0f b7 45 f6          	movzwl -0xa(%ebp),%eax
 36e:	83 ec 08             	sub    $0x8,%esp
 371:	52                   	push   %edx
 372:	50                   	push   %eax
 373:	e8 fc ff ff ff       	call   374 <dma_set_external_page_register+0x6d>
 378:	83 c4 10             	add    $0x10,%esp
 37b:	eb 04                	jmp    381 <dma_set_external_page_register+0x7a>
}

void dma_set_external_page_register(uint8_t reg, uint8_t val){
	
	if (reg > 14)
		return;
 37d:	90                   	nop
 37e:	eb 01                	jmp    381 <dma_set_external_page_register+0x7a>
	switch ( reg ) {

		case 1: {port = DMA_PAGE_CHAN1_ADDRBYTE2; break;}
		case 2: {port = DMA_PAGE_CHAN2_ADDRBYTE2; break;}
		case 3: {port = DMA_PAGE_CHAN3_ADDRBYTE2; break;}
		case 4: {return;}//! nothing should ever write to register 4
 380:	90                   	nop
		case 6: {port = DMA_PAGE_CHAN6_ADDRBYTE2; break;}
		case 7: {port = DMA_PAGE_CHAN7_ADDRBYTE2; break;}
	}

	outportb(port, val);
}
 381:	c9                   	leave  
 382:	c3                   	ret    

00000383 <dma_unmask_all>:

void dma_unmask_all(int dma){
 383:	55                   	push   %ebp
 384:	89 e5                	mov    %esp,%ebp
 386:	83 ec 08             	sub    $0x8,%esp

	outportb(DMA1_UNMASK_ALL_REG, 0xFF);
 389:	83 ec 08             	sub    $0x8,%esp
 38c:	68 ff 00 00 00       	push   $0xff
 391:	68 dc 00 00 00       	push   $0xdc
 396:	e8 fc ff ff ff       	call   397 <dma_unmask_all+0x14>
 39b:	83 c4 10             	add    $0x10,%esp
 39e:	90                   	nop
 39f:	c9                   	leave  
 3a0:	c3                   	ret    

exception.o:     file format elf32-i386


Disassembly of section .text:

00000000 <divide_by_zero_fault>:

void divide_by_zero_fault (
	unsigned int cs, 
    unsigned int eip, 
    unsigned int eflags
    ){
   0:	55                   	push   %ebp
   1:	89 e5                	mov    %esp,%ebp
   3:	83 ec 08             	sub    $0x8,%esp
	kernel_panic("Divide by 0");
   6:	83 ec 0c             	sub    $0xc,%esp
   9:	68 00 00 00 00       	push   $0x0
   e:	e8 fc ff ff ff       	call   f <divide_by_zero_fault+0xf>
  13:	83 c4 10             	add    $0x10,%esp
	for(;;);
  16:	eb fe                	jmp    16 <divide_by_zero_fault+0x16>

00000018 <single_step_trap>:

void single_step_trap (
	unsigned int cs, 
	unsigned int eip, 
	unsigned int eflags
	){
  18:	55                   	push   %ebp
  19:	89 e5                	mov    %esp,%ebp
  1b:	83 ec 08             	sub    $0x8,%esp
	kernel_panic("Single step");
  1e:	83 ec 0c             	sub    $0xc,%esp
  21:	68 0c 00 00 00       	push   $0xc
  26:	e8 fc ff ff ff       	call   27 <single_step_trap+0xf>
  2b:	83 c4 10             	add    $0x10,%esp
	for(;;);
  2e:	eb fe                	jmp    2e <single_step_trap+0x16>

00000030 <nmi_trap>:

void nmi_trap (
	unsigned int cs, 
    unsigned int eip, 
    unsigned int eflags
    ){
  30:	55                   	push   %ebp
  31:	89 e5                	mov    %esp,%ebp
  33:	83 ec 08             	sub    $0x8,%esp
	kernel_panic("NMI trap");
  36:	83 ec 0c             	sub    $0xc,%esp
  39:	68 18 00 00 00       	push   $0x18
  3e:	e8 fc ff ff ff       	call   3f <nmi_trap+0xf>
  43:	83 c4 10             	add    $0x10,%esp
	for(;;);
  46:	eb fe                	jmp    46 <nmi_trap+0x16>

00000048 <breakpoint_trap>:

void breakpoint_trap (
	unsigned int cs, 
    unsigned int eip,
    unsigned int eflags
    ){
  48:	55                   	push   %ebp
  49:	89 e5                	mov    %esp,%ebp
  4b:	83 ec 08             	sub    $0x8,%esp
	kernel_panic("Breakpoint trap");
  4e:	83 ec 0c             	sub    $0xc,%esp
  51:	68 21 00 00 00       	push   $0x21
  56:	e8 fc ff ff ff       	call   57 <breakpoint_trap+0xf>
  5b:	83 c4 10             	add    $0x10,%esp
	for(;;);
  5e:	eb fe                	jmp    5e <breakpoint_trap+0x16>

00000060 <overflow_trap>:

void overflow_trap (
	unsigned int cs, 
    unsigned int eip, 
    unsigned int eflags
    ){
  60:	55                   	push   %ebp
  61:	89 e5                	mov    %esp,%ebp
  63:	83 ec 08             	sub    $0x8,%esp
	kernel_panic("Overflow trap");
  66:	83 ec 0c             	sub    $0xc,%esp
  69:	68 31 00 00 00       	push   $0x31
  6e:	e8 fc ff ff ff       	call   6f <overflow_trap+0xf>
  73:	83 c4 10             	add    $0x10,%esp
	for(;;);
  76:	eb fe                	jmp    76 <overflow_trap+0x16>

00000078 <bounds_check_fault>:

void bounds_check_fault (
	unsigned int cs, 
    unsigned int eip, 
    unsigned int eflags
    ){
  78:	55                   	push   %ebp
  79:	89 e5                	mov    %esp,%ebp
  7b:	83 ec 08             	sub    $0x8,%esp
	kernel_panic("Bounds check fault");
  7e:	83 ec 0c             	sub    $0xc,%esp
  81:	68 3f 00 00 00       	push   $0x3f
  86:	e8 fc ff ff ff       	call   87 <bounds_check_fault+0xf>
  8b:	83 c4 10             	add    $0x10,%esp
	for(;;);
  8e:	eb fe                	jmp    8e <bounds_check_fault+0x16>

00000090 <invalid_opcode_fault>:

void invalid_opcode_fault (
	unsigned int cs, 
    unsigned int eip, 
    unsigned int eflags
    ){
  90:	55                   	push   %ebp
  91:	89 e5                	mov    %esp,%ebp
  93:	83 ec 08             	sub    $0x8,%esp
	kernel_panic("Invalid OP-code");
  96:	83 ec 0c             	sub    $0xc,%esp
  99:	68 52 00 00 00       	push   $0x52
  9e:	e8 fc ff ff ff       	call   9f <invalid_opcode_fault+0xf>
  a3:	83 c4 10             	add    $0x10,%esp
	for(;;);
  a6:	eb fe                	jmp    a6 <invalid_opcode_fault+0x16>

000000a8 <no_device_fault>:

void no_device_fault (
	unsigned int cs, 
    unsigned int eip, 
    unsigned int eflags
    ){
  a8:	55                   	push   %ebp
  a9:	89 e5                	mov    %esp,%ebp
  ab:	83 ec 08             	sub    $0x8,%esp
	kernel_panic("Device not found");
  ae:	83 ec 0c             	sub    $0xc,%esp
  b1:	68 62 00 00 00       	push   $0x62
  b6:	e8 fc ff ff ff       	call   b7 <no_device_fault+0xf>
  bb:	83 c4 10             	add    $0x10,%esp
	for(;;);
  be:	eb fe                	jmp    be <no_device_fault+0x16>

000000c0 <double_fault_abort>:
void double_fault_abort (
	unsigned int cs, 
	unsigned int err,
    unsigned int eip, 
    unsigned int eflags
    ){
  c0:	55                   	push   %ebp
  c1:	89 e5                	mov    %esp,%ebp
  c3:	83 ec 08             	sub    $0x8,%esp
	kernel_panic("Double fault");
  c6:	83 ec 0c             	sub    $0xc,%esp
  c9:	68 73 00 00 00       	push   $0x73
  ce:	e8 fc ff ff ff       	call   cf <double_fault_abort+0xf>
  d3:	83 c4 10             	add    $0x10,%esp
	for(;;);
  d6:	eb fe                	jmp    d6 <double_fault_abort+0x16>

000000d8 <invalid_tss_fault>:
void invalid_tss_fault (
	unsigned int cs, 
	unsigned int err,
    unsigned int eip, 
    unsigned int eflags
    ){
  d8:	55                   	push   %ebp
  d9:	89 e5                	mov    %esp,%ebp
  db:	83 ec 08             	sub    $0x8,%esp
	kernel_panic("Invalid TSS");
  de:	83 ec 0c             	sub    $0xc,%esp
  e1:	68 80 00 00 00       	push   $0x80
  e6:	e8 fc ff ff ff       	call   e7 <invalid_tss_fault+0xf>
  eb:	83 c4 10             	add    $0x10,%esp
	for(;;);
  ee:	eb fe                	jmp    ee <invalid_tss_fault+0x16>

000000f0 <no_segment_fault>:
void no_segment_fault (
	unsigned int cs, 
	unsigned int err,
    unsigned int eip, 
    unsigned int eflags
    ){
  f0:	55                   	push   %ebp
  f1:	89 e5                	mov    %esp,%ebp
  f3:	83 ec 08             	sub    $0x8,%esp
	kernel_panic("Invalid segment");
  f6:	83 ec 0c             	sub    $0xc,%esp
  f9:	68 8c 00 00 00       	push   $0x8c
  fe:	e8 fc ff ff ff       	call   ff <no_segment_fault+0xf>
 103:	83 c4 10             	add    $0x10,%esp
	for(;;);
 106:	eb fe                	jmp    106 <no_segment_fault+0x16>

00000108 <stack_fault>:
void stack_fault (
	unsigned int cs, 
	unsigned int err,
    unsigned int eip, 
    unsigned int eflags
    ){
 108:	55                   	push   %ebp
 109:	89 e5                	mov    %esp,%ebp
 10b:	83 ec 08             	sub    $0x8,%esp
	kernel_panic("Stack fault");
 10e:	83 ec 0c             	sub    $0xc,%esp
 111:	68 9c 00 00 00       	push   $0x9c
 116:	e8 fc ff ff ff       	call   117 <stack_fault+0xf>
 11b:	83 c4 10             	add    $0x10,%esp
	for(;;);
 11e:	eb fe                	jmp    11e <stack_fault+0x16>

00000120 <general_protection_fault>:
void general_protection_fault (
	unsigned int cs, 
	unsigned int err,
    unsigned int eip, 
    unsigned int eflags
    ){
 120:	55                   	push   %ebp
 121:	89 e5                	mov    %esp,%ebp
 123:	83 ec 08             	sub    $0x8,%esp
	kernel_panic("General protection fault");
 126:	83 ec 0c             	sub    $0xc,%esp
 129:	68 a8 00 00 00       	push   $0xa8
 12e:	e8 fc ff ff ff       	call   12f <general_protection_fault+0xf>
 133:	83 c4 10             	add    $0x10,%esp
	for(;;);
 136:	eb fe                	jmp    136 <general_protection_fault+0x16>

00000138 <page_fault>:
void page_fault (
	unsigned int cs, 
	unsigned int err,
    unsigned int eip, 
    unsigned int eflags
    ){
 138:	55                   	push   %ebp
 139:	89 e5                	mov    %esp,%ebp
 13b:	83 ec 18             	sub    $0x18,%esp
	asm volatile ("cli");
 13e:	fa                   	cli    
	asm volatile ("sub $4, %ebp");
 13f:	83 ed 04             	sub    $0x4,%ebp

	int faultAddr;

	asm volatile ("mov %%cr2, %0" : "=r"(faultAddr));
 142:	0f 20 d0             	mov    %cr2,%eax
 145:	89 45 f4             	mov    %eax,-0xc(%ebp)

	kernel_panic("Page fault at %#0(6)p:%#0(10)p: referenced memory at %#0(10)p(flags: %#x)", 
 148:	83 ec 0c             	sub    $0xc,%esp
 14b:	ff 75 10             	pushl  0x10(%ebp)
 14e:	ff 75 f4             	pushl  -0xc(%ebp)
 151:	ff 75 0c             	pushl  0xc(%ebp)
 154:	ff 75 08             	pushl  0x8(%ebp)
 157:	68 c4 00 00 00       	push   $0xc4
 15c:	e8 fc ff ff ff       	call   15d <page_fault+0x25>
 161:	83 c4 20             	add    $0x20,%esp
		cs, err, faultAddr, eip);

	//asm volatile ("popal; leave; iret");
	
	asm volatile ("cli");
 164:	fa                   	cli    
	asm volatile ("hlt");
 165:	f4                   	hlt    
}
 166:	90                   	nop
 167:	c9                   	leave  
 168:	c3                   	ret    

00000169 <fpu_fault>:

void fpu_fault (
	unsigned int cs, 
    unsigned int eip, 
    unsigned int eflags
    ){
 169:	55                   	push   %ebp
 16a:	89 e5                	mov    %esp,%ebp
 16c:	83 ec 08             	sub    $0x8,%esp
	kernel_panic("FPU fault");
 16f:	83 ec 0c             	sub    $0xc,%esp
 172:	68 0e 01 00 00       	push   $0x10e
 177:	e8 fc ff ff ff       	call   178 <fpu_fault+0xf>
 17c:	83 c4 10             	add    $0x10,%esp
	for(;;);
 17f:	eb fe                	jmp    17f <fpu_fault+0x16>

00000181 <alignment_check_fault>:
void alignment_check_fault (
	unsigned int cs, 
	unsigned int err,
    unsigned int eip, 
    unsigned int eflags
    ){
 181:	55                   	push   %ebp
 182:	89 e5                	mov    %esp,%ebp
 184:	83 ec 08             	sub    $0x8,%esp
	kernel_panic("Alignment check fault");
 187:	83 ec 0c             	sub    $0xc,%esp
 18a:	68 18 01 00 00       	push   $0x118
 18f:	e8 fc ff ff ff       	call   190 <alignment_check_fault+0xf>
 194:	83 c4 10             	add    $0x10,%esp
	for(;;);
 197:	eb fe                	jmp    197 <alignment_check_fault+0x16>

00000199 <machine_check_abort>:

void machine_check_abort (
	unsigned int cs, 
    unsigned int eip, 
    unsigned int eflags
    ){
 199:	55                   	push   %ebp
 19a:	89 e5                	mov    %esp,%ebp
 19c:	83 ec 08             	sub    $0x8,%esp
	kernel_panic("Machine check abort");
 19f:	83 ec 0c             	sub    $0xc,%esp
 1a2:	68 2e 01 00 00       	push   $0x12e
 1a7:	e8 fc ff ff ff       	call   1a8 <machine_check_abort+0xf>
 1ac:	83 c4 10             	add    $0x10,%esp
	for(;;);
 1af:	eb fe                	jmp    1af <machine_check_abort+0x16>

000001b1 <simd_fpu_fault>:

void simd_fpu_fault (
	unsigned int cs, 
    unsigned int eip, 
    unsigned int eflags
    ){
 1b1:	55                   	push   %ebp
 1b2:	89 e5                	mov    %esp,%ebp
 1b4:	83 ec 08             	sub    $0x8,%esp
	kernel_panic("SIMD FPU fault");
 1b7:	83 ec 0c             	sub    $0xc,%esp
 1ba:	68 42 01 00 00       	push   $0x142
 1bf:	e8 fc ff ff ff       	call   1c0 <simd_fpu_fault+0xf>
 1c4:	83 c4 10             	add    $0x10,%esp
	for(;;);
 1c7:	eb fe                	jmp    1c7 <simd_fpu_fault+0x16>

floppy.o:     file format elf32-i386


Disassembly of section .text:

00000000 <dma_initialize_floppy>:
// =====================================
// Private functions
// =====================================

int dma_initialize_floppy(const uint8_t* buffer, const uint32_t length)
{
   0:	55                   	push   %ebp
   1:	89 e5                	mov    %esp,%ebp
   3:	83 ec 18             	sub    $0x18,%esp
	{
		uint8_t byte[4];//Lo[0], Mid[1], Hi[2]
		unsigned long l;
	}a, c;

	a.l = (unsigned)buffer;
   6:	8b 45 08             	mov    0x8(%ebp),%eax
   9:	89 45 f4             	mov    %eax,-0xc(%ebp)
	c.l = (unsigned)length - 1;
   c:	8b 45 0c             	mov    0xc(%ebp),%eax
   f:	83 e8 01             	sub    $0x1,%eax
  12:	89 45 f0             	mov    %eax,-0x10(%ebp)

	//Check for buffer issues
	if ((a.l >> 24) || (c.l >> 16) || (((a.l & 0xffff) + c.l) >> 16)) 
  15:	8b 45 f4             	mov    -0xc(%ebp),%eax
  18:	c1 e8 18             	shr    $0x18,%eax
  1b:	85 c0                	test   %eax,%eax
  1d:	75 1c                	jne    3b <dma_initialize_floppy+0x3b>
  1f:	8b 45 f0             	mov    -0x10(%ebp),%eax
  22:	c1 e8 10             	shr    $0x10,%eax
  25:	85 c0                	test   %eax,%eax
  27:	75 12                	jne    3b <dma_initialize_floppy+0x3b>
  29:	8b 45 f4             	mov    -0xc(%ebp),%eax
  2c:	0f b7 d0             	movzwl %ax,%edx
  2f:	8b 45 f0             	mov    -0x10(%ebp),%eax
  32:	01 d0                	add    %edx,%eax
  34:	c1 e8 10             	shr    $0x10,%eax
  37:	85 c0                	test   %eax,%eax
  39:	74 1a                	je     55 <dma_initialize_floppy+0x55>
	{
		printf("[FDC]DMA buffer error\n");
  3b:	83 ec 0c             	sub    $0xc,%esp
  3e:	68 0c 00 00 00       	push   $0xc
  43:	e8 fc ff ff ff       	call   44 <dma_initialize_floppy+0x44>
  48:	83 c4 10             	add    $0x10,%esp
		return 0;
  4b:	b8 00 00 00 00       	mov    $0x0,%eax
  50:	e9 9d 00 00 00       	jmp    f2 <dma_initialize_floppy+0xf2>
	}

	dma_reset(1);
  55:	83 ec 0c             	sub    $0xc,%esp
  58:	6a 01                	push   $0x1
  5a:	e8 fc ff ff ff       	call   5b <dma_initialize_floppy+0x5b>
  5f:	83 c4 10             	add    $0x10,%esp
	dma_mask_channel(FDC_DMA_CHANNEL);//Mask channel 2
  62:	b8 02 00 00 00       	mov    $0x2,%eax
  67:	83 ec 0c             	sub    $0xc,%esp
  6a:	50                   	push   %eax
  6b:	e8 fc ff ff ff       	call   6c <dma_initialize_floppy+0x6c>
  70:	83 c4 10             	add    $0x10,%esp
	dma_reset_flipflop(1);//Flipflop reset on DMA 1
  73:	83 ec 0c             	sub    $0xc,%esp
  76:	6a 01                	push   $0x1
  78:	e8 fc ff ff ff       	call   79 <dma_initialize_floppy+0x79>
  7d:	83 c4 10             	add    $0x10,%esp

	dma_set_address(FDC_DMA_CHANNEL, a.byte[0], a.byte[1]);//Buffer address
  80:	0f b6 45 f5          	movzbl -0xb(%ebp),%eax
  84:	0f b6 d0             	movzbl %al,%edx
  87:	0f b6 45 f4          	movzbl -0xc(%ebp),%eax
  8b:	0f b6 c0             	movzbl %al,%eax
  8e:	b9 02 00 00 00       	mov    $0x2,%ecx
  93:	83 ec 04             	sub    $0x4,%esp
  96:	52                   	push   %edx
  97:	50                   	push   %eax
  98:	51                   	push   %ecx
  99:	e8 fc ff ff ff       	call   9a <dma_initialize_floppy+0x9a>
  9e:	83 c4 10             	add    $0x10,%esp
	dma_reset_flipflop(1);//Flipflop reset on DMA 1
  a1:	83 ec 0c             	sub    $0xc,%esp
  a4:	6a 01                	push   $0x1
  a6:	e8 fc ff ff ff       	call   a7 <dma_initialize_floppy+0xa7>
  ab:	83 c4 10             	add    $0x10,%esp

	dma_set_count(FDC_DMA_CHANNEL, c.byte[0], c.byte[1]);//Set count
  ae:	0f b6 45 f1          	movzbl -0xf(%ebp),%eax
  b2:	0f b6 d0             	movzbl %al,%edx
  b5:	0f b6 45 f0          	movzbl -0x10(%ebp),%eax
  b9:	0f b6 c0             	movzbl %al,%eax
  bc:	b9 02 00 00 00       	mov    $0x2,%ecx
  c1:	83 ec 04             	sub    $0x4,%esp
  c4:	52                   	push   %edx
  c5:	50                   	push   %eax
  c6:	51                   	push   %ecx
  c7:	e8 fc ff ff ff       	call   c8 <dma_initialize_floppy+0xc8>
  cc:	83 c4 10             	add    $0x10,%esp
	dma_set_read(FDC_DMA_CHANNEL);
  cf:	b8 02 00 00 00       	mov    $0x2,%eax
  d4:	83 ec 0c             	sub    $0xc,%esp
  d7:	50                   	push   %eax
  d8:	e8 fc ff ff ff       	call   d9 <dma_initialize_floppy+0xd9>
  dd:	83 c4 10             	add    $0x10,%esp

	dma_unmask_all(1);//Unmask channel 2
  e0:	83 ec 0c             	sub    $0xc,%esp
  e3:	6a 01                	push   $0x1
  e5:	e8 fc ff ff ff       	call   e6 <dma_initialize_floppy+0xe6>
  ea:	83 c4 10             	add    $0x10,%esp

	return 1;
  ed:	b8 01 00 00 00       	mov    $0x1,%eax
}
  f2:	c9                   	leave  
  f3:	c3                   	ret    

000000f4 <floppy_disk_read_status>:

const uint8_t floppy_disk_read_status()
{
  f4:	55                   	push   %ebp
  f5:	89 e5                	mov    %esp,%ebp
  f7:	83 ec 08             	sub    $0x8,%esp
	// Return main status register
	return inportb(FLOPPY_DISK_MSR);
  fa:	83 ec 0c             	sub    $0xc,%esp
  fd:	68 f4 03 00 00       	push   $0x3f4
 102:	e8 fc ff ff ff       	call   103 <floppy_disk_read_status+0xf>
 107:	83 c4 10             	add    $0x10,%esp
}
 10a:	c9                   	leave  
 10b:	c3                   	ret    

0000010c <floppy_disk_write_dor>:

void floppy_disk_write_dor(const uint8_t val)
{
 10c:	55                   	push   %ebp
 10d:	89 e5                	mov    %esp,%ebp
 10f:	83 ec 18             	sub    $0x18,%esp
 112:	8b 45 08             	mov    0x8(%ebp),%eax
 115:	88 45 f4             	mov    %al,-0xc(%ebp)
	// Write to the DOR
	outportb(FLOPPY_DISK_DOR, val);
 118:	0f b6 45 f4          	movzbl -0xc(%ebp),%eax
 11c:	83 ec 08             	sub    $0x8,%esp
 11f:	50                   	push   %eax
 120:	68 f2 03 00 00       	push   $0x3f2
 125:	e8 fc ff ff ff       	call   126 <floppy_disk_write_dor+0x1a>
 12a:	83 c4 10             	add    $0x10,%esp
}
 12d:	90                   	nop
 12e:	c9                   	leave  
 12f:	c3                   	ret    

00000130 <floppy_disk_send_command>:

void floppy_disk_send_command(const uint8_t cmd)
{
 130:	55                   	push   %ebp
 131:	89 e5                	mov    %esp,%ebp
 133:	83 ec 28             	sub    $0x28,%esp
 136:	8b 45 08             	mov    0x8(%ebp),%eax
 139:	88 45 e4             	mov    %al,-0x1c(%ebp)
	// Wait until data register is ready

	printf("[FDC]Trying to send command %0#(4)x... ", cmd);
 13c:	0f b6 45 e4          	movzbl -0x1c(%ebp),%eax
 140:	83 ec 08             	sub    $0x8,%esp
 143:	50                   	push   %eax
 144:	68 24 00 00 00       	push   $0x24
 149:	e8 fc ff ff ff       	call   14a <floppy_disk_send_command+0x1a>
 14e:	83 c4 10             	add    $0x10,%esp

	for (int i = 0; i < 500;++i)
 151:	c7 45 f4 00 00 00 00 	movl   $0x0,-0xc(%ebp)
 158:	eb 39                	jmp    193 <floppy_disk_send_command+0x63>
	{
		if (floppy_disk_read_status() & FLOPPY_DISK_MSR_MASK_DATAREG)
 15a:	e8 fc ff ff ff       	call   15b <floppy_disk_send_command+0x2b>
 15f:	84 c0                	test   %al,%al
 161:	79 2c                	jns    18f <floppy_disk_send_command+0x5f>
		{
			printf("Done!\n", cmd);
 163:	0f b6 45 e4          	movzbl -0x1c(%ebp),%eax
 167:	83 ec 08             	sub    $0x8,%esp
 16a:	50                   	push   %eax
 16b:	68 4c 00 00 00       	push   $0x4c
 170:	e8 fc ff ff ff       	call   171 <floppy_disk_send_command+0x41>
 175:	83 c4 10             	add    $0x10,%esp
			return outportb(FLOPPY_DISK_FIFO, cmd);
 178:	0f b6 45 e4          	movzbl -0x1c(%ebp),%eax
 17c:	83 ec 08             	sub    $0x8,%esp
 17f:	50                   	push   %eax
 180:	68 f5 03 00 00       	push   $0x3f5
 185:	e8 fc ff ff ff       	call   186 <floppy_disk_send_command+0x56>
 18a:	83 c4 10             	add    $0x10,%esp
 18d:	eb 1d                	jmp    1ac <floppy_disk_send_command+0x7c>
{
	// Wait until data register is ready

	printf("[FDC]Trying to send command %0#(4)x... ", cmd);

	for (int i = 0; i < 500;++i)
 18f:	83 45 f4 01          	addl   $0x1,-0xc(%ebp)
 193:	81 7d f4 f3 01 00 00 	cmpl   $0x1f3,-0xc(%ebp)
 19a:	7e be                	jle    15a <floppy_disk_send_command+0x2a>
		{
			printf("Done!\n", cmd);
			return outportb(FLOPPY_DISK_FIFO, cmd);
		}
	}
	printf("Failed!\n");
 19c:	83 ec 0c             	sub    $0xc,%esp
 19f:	68 53 00 00 00       	push   $0x53
 1a4:	e8 fc ff ff ff       	call   1a5 <floppy_disk_send_command+0x75>
 1a9:	83 c4 10             	add    $0x10,%esp
}
 1ac:	c9                   	leave  
 1ad:	c3                   	ret    

000001ae <floppy_disk_read_data>:

const uint8_t floppy_disk_read_data()
{
 1ae:	55                   	push   %ebp
 1af:	89 e5                	mov    %esp,%ebp
 1b1:	83 ec 18             	sub    $0x18,%esp
	// Wait until data register is ready

	for (int i = 0; i < 500;++i)
 1b4:	c7 45 f4 00 00 00 00 	movl   $0x0,-0xc(%ebp)
 1bb:	eb 1f                	jmp    1dc <floppy_disk_read_data+0x2e>
	{
		if (floppy_disk_read_status() & FLOPPY_DISK_MSR_MASK_DATAREG)
 1bd:	e8 fc ff ff ff       	call   1be <floppy_disk_read_data+0x10>
 1c2:	84 c0                	test   %al,%al
 1c4:	79 12                	jns    1d8 <floppy_disk_read_data+0x2a>
		{
			return inportb(FLOPPY_DISK_FIFO);
 1c6:	83 ec 0c             	sub    $0xc,%esp
 1c9:	68 f5 03 00 00       	push   $0x3f5
 1ce:	e8 fc ff ff ff       	call   1cf <floppy_disk_read_data+0x21>
 1d3:	83 c4 10             	add    $0x10,%esp
 1d6:	eb 0d                	jmp    1e5 <floppy_disk_read_data+0x37>

const uint8_t floppy_disk_read_data()
{
	// Wait until data register is ready

	for (int i = 0; i < 500;++i)
 1d8:	83 45 f4 01          	addl   $0x1,-0xc(%ebp)
 1dc:	81 7d f4 f3 01 00 00 	cmpl   $0x1f3,-0xc(%ebp)
 1e3:	7e d8                	jle    1bd <floppy_disk_read_data+0xf>
		if (floppy_disk_read_status() & FLOPPY_DISK_MSR_MASK_DATAREG)
		{
			return inportb(FLOPPY_DISK_FIFO);
		}
	}
}
 1e5:	c9                   	leave  
 1e6:	c3                   	ret    

000001e7 <floppy_disk_write_ccr>:

void floppy_disk_write_ccr(const uint8_t val)
{
 1e7:	55                   	push   %ebp
 1e8:	89 e5                	mov    %esp,%ebp
 1ea:	83 ec 18             	sub    $0x18,%esp
 1ed:	8b 45 08             	mov    0x8(%ebp),%eax
 1f0:	88 45 f4             	mov    %al,-0xc(%ebp)
	// Write to configuration control register

	outportb(FLOPPY_DISK_CTRL, val);
 1f3:	0f b6 45 f4          	movzbl -0xc(%ebp),%eax
 1f7:	83 ec 08             	sub    $0x8,%esp
 1fa:	50                   	push   %eax
 1fb:	68 f7 03 00 00       	push   $0x3f7
 200:	e8 fc ff ff ff       	call   201 <floppy_disk_write_ccr+0x1a>
 205:	83 c4 10             	add    $0x10,%esp
}
 208:	90                   	nop
 209:	c9                   	leave  
 20a:	c3                   	ret    

0000020b <floppy_disk_wait_irq>:

void floppy_disk_wait_irq()
{
 20b:	55                   	push   %ebp
 20c:	89 e5                	mov    %esp,%ebp
 20e:	83 ec 08             	sub    $0x8,%esp
	printf("Waiting...\n");
 211:	83 ec 0c             	sub    $0xc,%esp
 214:	68 5c 00 00 00       	push   $0x5c
 219:	e8 fc ff ff ff       	call   21a <floppy_disk_wait_irq+0xf>
 21e:	83 c4 10             	add    $0x10,%esp
	while (_FloppyDiskIRQ == 0);
 221:	90                   	nop
 222:	0f b6 05 01 00 00 00 	movzbl 0x1,%eax
 229:	84 c0                	test   %al,%al
 22b:	74 f5                	je     222 <floppy_disk_wait_irq+0x17>
	_FloppyDiskIRQ = 0;
 22d:	c6 05 01 00 00 00 00 	movb   $0x0,0x1
}
 234:	90                   	nop
 235:	c9                   	leave  
 236:	c3                   	ret    

00000237 <i86_floppy_irq>:

void i86_floppy_irq()
{
 237:	55                   	push   %ebp
 238:	89 e5                	mov    %esp,%ebp
 23a:	83 ec 08             	sub    $0x8,%esp
	asm volatile ("add %esp, 12");
 23d:	01 25 0c 00 00 00    	add    %esp,0xc
	asm volatile ("pushal");
 243:	60                   	pusha  
	asm volatile ("cli");
 244:	fa                   	cli    

	printf("[FDC]IRQ fired\n");
 245:	83 ec 0c             	sub    $0xc,%esp
 248:	68 68 00 00 00       	push   $0x68
 24d:	e8 fc ff ff ff       	call   24e <i86_floppy_irq+0x17>
 252:	83 c4 10             	add    $0x10,%esp

	//! irq fired
	_FloppyDiskIRQ = 1;
 255:	c6 05 01 00 00 00 01 	movb   $0x1,0x1

	//! tell hal we are done
	interruptdone(FLOPPY_IRQ);
 25c:	b8 06 00 00 00       	mov    $0x6,%eax
 261:	83 ec 0c             	sub    $0xc,%esp
 264:	50                   	push   %eax
 265:	e8 fc ff ff ff       	call   266 <i86_floppy_irq+0x2f>
 26a:	83 c4 10             	add    $0x10,%esp

	asm volatile ("sti");
 26d:	fb                   	sti    
	asm volatile ("popal; leave; iret");
 26e:	61                   	popa   
 26f:	c9                   	leave  
 270:	cf                   	iret   
}
 271:	90                   	nop
 272:	c9                   	leave  
 273:	c3                   	ret    

00000274 <floppy_disk_check_int>:

void floppy_disk_check_int(uint32_t* st0, uint32_t* cyl)
{
 274:	55                   	push   %ebp
 275:	89 e5                	mov    %esp,%ebp
 277:	83 ec 08             	sub    $0x8,%esp
	floppy_disk_send_command(FDC_CMD_CHECK_INT);
 27a:	83 ec 0c             	sub    $0xc,%esp
 27d:	6a 08                	push   $0x8
 27f:	e8 fc ff ff ff       	call   280 <floppy_disk_check_int+0xc>
 284:	83 c4 10             	add    $0x10,%esp

	*st0 = floppy_disk_read_data();
 287:	e8 fc ff ff ff       	call   288 <floppy_disk_check_int+0x14>
 28c:	0f b6 d0             	movzbl %al,%edx
 28f:	8b 45 08             	mov    0x8(%ebp),%eax
 292:	89 10                	mov    %edx,(%eax)
	*cyl = floppy_disk_read_data();
 294:	e8 fc ff ff ff       	call   295 <floppy_disk_check_int+0x21>
 299:	0f b6 d0             	movzbl %al,%edx
 29c:	8b 45 0c             	mov    0xc(%ebp),%eax
 29f:	89 10                	mov    %edx,(%eax)
}
 2a1:	90                   	nop
 2a2:	c9                   	leave  
 2a3:	c3                   	ret    

000002a4 <floppy_disk_set_motor>:

void floppy_disk_set_motor(int b)
{
 2a4:	55                   	push   %ebp
 2a5:	89 e5                	mov    %esp,%ebp
 2a7:	83 ec 18             	sub    $0x18,%esp
	// Sanity check

	if (_CurrentDrive > 3)
 2aa:	0f b6 05 00 00 00 00 	movzbl 0x0,%eax
 2b1:	3c 03                	cmp    $0x3,%al
 2b3:	0f 87 9b 00 00 00    	ja     354 <floppy_disk_set_motor+0xb0>
	{
		return;
	}

	uint8_t motor = 0;
 2b9:	c6 45 f7 00          	movb   $0x0,-0x9(%ebp)

	// Get motor from drive
	switch (_CurrentDrive)
 2bd:	0f b6 05 00 00 00 00 	movzbl 0x0,%eax
 2c4:	0f b6 c0             	movzbl %al,%eax
 2c7:	83 f8 01             	cmp    $0x1,%eax
 2ca:	74 1d                	je     2e9 <floppy_disk_set_motor+0x45>
 2cc:	83 f8 01             	cmp    $0x1,%eax
 2cf:	7f 06                	jg     2d7 <floppy_disk_set_motor+0x33>
 2d1:	85 c0                	test   %eax,%eax
 2d3:	74 0e                	je     2e3 <floppy_disk_set_motor+0x3f>
 2d5:	eb 23                	jmp    2fa <floppy_disk_set_motor+0x56>
 2d7:	83 f8 02             	cmp    $0x2,%eax
 2da:	74 13                	je     2ef <floppy_disk_set_motor+0x4b>
 2dc:	83 f8 03             	cmp    $0x3,%eax
 2df:	74 14                	je     2f5 <floppy_disk_set_motor+0x51>
 2e1:	eb 17                	jmp    2fa <floppy_disk_set_motor+0x56>
	{
	case 0:
		motor = FLOPPY_DISK_DOR_MASK_DRIVE0_MOTOR;
 2e3:	c6 45 f7 10          	movb   $0x10,-0x9(%ebp)
		break;
 2e7:	eb 11                	jmp    2fa <floppy_disk_set_motor+0x56>
	case 1:
		motor = FLOPPY_DISK_DOR_MASK_DRIVE1_MOTOR;
 2e9:	c6 45 f7 20          	movb   $0x20,-0x9(%ebp)
		break;
 2ed:	eb 0b                	jmp    2fa <floppy_disk_set_motor+0x56>
	case 2:
		motor = FLOPPY_DISK_DOR_MASK_DRIVE2_MOTOR;
 2ef:	c6 45 f7 40          	movb   $0x40,-0x9(%ebp)
		break;
 2f3:	eb 05                	jmp    2fa <floppy_disk_set_motor+0x56>
	case 3:
		motor = FLOPPY_DISK_DOR_MASK_DRIVE3_MOTOR;
 2f5:	c6 45 f7 80          	movb   $0x80,-0x9(%ebp)
		break;
 2f9:	90                   	nop
	}

	// Turn on or off motor
	if (b)
 2fa:	83 7d 08 00          	cmpl   $0x0,0x8(%ebp)
 2fe:	74 2b                	je     32b <floppy_disk_set_motor+0x87>
	{
		floppy_disk_write_dor(_CurrentDrive | motor | FLOPPY_DISK_DOR_MASK_RESET | FLOPPY_DISK_DOR_MASK_DMA);
 300:	0f b6 05 00 00 00 00 	movzbl 0x0,%eax
 307:	0a 45 f7             	or     -0x9(%ebp),%al
 30a:	83 c8 0c             	or     $0xc,%eax
 30d:	0f b6 c0             	movzbl %al,%eax
 310:	83 ec 0c             	sub    $0xc,%esp
 313:	50                   	push   %eax
 314:	e8 fc ff ff ff       	call   315 <floppy_disk_set_motor+0x71>
 319:	83 c4 10             	add    $0x10,%esp
		sleep(50);
 31c:	83 ec 0c             	sub    $0xc,%esp
 31f:	6a 32                	push   $0x32
 321:	e8 fc ff ff ff       	call   322 <floppy_disk_set_motor+0x7e>
 326:	83 c4 10             	add    $0x10,%esp
 329:	eb 1a                	jmp    345 <floppy_disk_set_motor+0xa1>
	}
	else
	{
		floppy_disk_write_dor(FLOPPY_DISK_DOR_MASK_RESET | FLOPPY_DISK_DOR_MASK_DMA);
 32b:	83 ec 0c             	sub    $0xc,%esp
 32e:	6a 0c                	push   $0xc
 330:	e8 fc ff ff ff       	call   331 <floppy_disk_set_motor+0x8d>
 335:	83 c4 10             	add    $0x10,%esp
		sleep(50);
 338:	83 ec 0c             	sub    $0xc,%esp
 33b:	6a 32                	push   $0x32
 33d:	e8 fc ff ff ff       	call   33e <floppy_disk_set_motor+0x9a>
 342:	83 c4 10             	add    $0x10,%esp
	}

	sleep(20);
 345:	83 ec 0c             	sub    $0xc,%esp
 348:	6a 14                	push   $0x14
 34a:	e8 fc ff ff ff       	call   34b <floppy_disk_set_motor+0xa7>
 34f:	83 c4 10             	add    $0x10,%esp
 352:	eb 01                	jmp    355 <floppy_disk_set_motor+0xb1>
{
	// Sanity check

	if (_CurrentDrive > 3)
	{
		return;
 354:	90                   	nop
		floppy_disk_write_dor(FLOPPY_DISK_DOR_MASK_RESET | FLOPPY_DISK_DOR_MASK_DMA);
		sleep(50);
	}

	sleep(20);
}
 355:	c9                   	leave  
 356:	c3                   	ret    

00000357 <floppy_disk_configure_drive>:

void floppy_disk_configure_drive(const uint32_t stepr, const uint32_t loadt, const uint32_t unloadt, int dma)
{
 357:	55                   	push   %ebp
 358:	89 e5                	mov    %esp,%ebp
 35a:	83 ec 18             	sub    $0x18,%esp
	uint8_t data = 0;
 35d:	c6 45 f7 00          	movb   $0x0,-0x9(%ebp)

	floppy_disk_send_command(FDC_CMD_SPECIFY);
 361:	83 ec 0c             	sub    $0xc,%esp
 364:	6a 03                	push   $0x3
 366:	e8 fc ff ff ff       	call   367 <floppy_disk_configure_drive+0x10>
 36b:	83 c4 10             	add    $0x10,%esp

	data = ((stepr & 0x0F) << 4) | (unloadt & 0x0F);
 36e:	8b 45 08             	mov    0x8(%ebp),%eax
 371:	c1 e0 04             	shl    $0x4,%eax
 374:	89 c2                	mov    %eax,%edx
 376:	8b 45 10             	mov    0x10(%ebp),%eax
 379:	83 e0 0f             	and    $0xf,%eax
 37c:	09 d0                	or     %edx,%eax
 37e:	88 45 f7             	mov    %al,-0x9(%ebp)
	floppy_disk_send_command(data);
 381:	0f b6 45 f7          	movzbl -0x9(%ebp),%eax
 385:	83 ec 0c             	sub    $0xc,%esp
 388:	50                   	push   %eax
 389:	e8 fc ff ff ff       	call   38a <floppy_disk_configure_drive+0x33>
 38e:	83 c4 10             	add    $0x10,%esp

	data = (loadt) << 1 | (dma) ? 1 : 0;
 391:	8b 45 0c             	mov    0xc(%ebp),%eax
 394:	8d 14 00             	lea    (%eax,%eax,1),%edx
 397:	8b 45 14             	mov    0x14(%ebp),%eax
 39a:	09 d0                	or     %edx,%eax
 39c:	85 c0                	test   %eax,%eax
 39e:	0f 95 c0             	setne  %al
 3a1:	88 45 f7             	mov    %al,-0x9(%ebp)
	floppy_disk_send_command(data);
 3a4:	0f b6 45 f7          	movzbl -0x9(%ebp),%eax
 3a8:	83 ec 0c             	sub    $0xc,%esp
 3ab:	50                   	push   %eax
 3ac:	e8 fc ff ff ff       	call   3ad <floppy_disk_configure_drive+0x56>
 3b1:	83 c4 10             	add    $0x10,%esp
}
 3b4:	90                   	nop
 3b5:	c9                   	leave  
 3b6:	c3                   	ret    

000003b7 <floppy_disk_calibrate>:

const FLOPPY_DISK_ERROR floppy_disk_calibrate(const uint32_t drive)
{
 3b7:	55                   	push   %ebp
 3b8:	89 e5                	mov    %esp,%ebp
 3ba:	83 ec 18             	sub    $0x18,%esp
	uint32_t st0;
	uint32_t cyl;

	// Sanity check

	if (drive >= 4)
 3bd:	83 7d 08 03          	cmpl   $0x3,0x8(%ebp)
 3c1:	76 0a                	jbe    3cd <floppy_disk_calibrate+0x16>
	{
		return FLOPPY_INVALID_DRIVE;
 3c3:	b8 fe ff ff ff       	mov    $0xfffffffe,%eax
 3c8:	e9 84 00 00 00       	jmp    451 <floppy_disk_calibrate+0x9a>
	}

	// Turn on motor

	floppy_disk_set_motor(1);
 3cd:	83 ec 0c             	sub    $0xc,%esp
 3d0:	6a 01                	push   $0x1
 3d2:	e8 fc ff ff ff       	call   3d3 <floppy_disk_calibrate+0x1c>
 3d7:	83 c4 10             	add    $0x10,%esp

	for (int i = 0; i < 10; ++i)
 3da:	c7 45 f4 00 00 00 00 	movl   $0x0,-0xc(%ebp)
 3e1:	eb 56                	jmp    439 <floppy_disk_calibrate+0x82>
	{
		floppy_disk_send_command(FDC_CMD_CALIBRATE);
 3e3:	83 ec 0c             	sub    $0xc,%esp
 3e6:	6a 07                	push   $0x7
 3e8:	e8 fc ff ff ff       	call   3e9 <floppy_disk_calibrate+0x32>
 3ed:	83 c4 10             	add    $0x10,%esp
		floppy_disk_send_command(drive);
 3f0:	8b 45 08             	mov    0x8(%ebp),%eax
 3f3:	0f b6 c0             	movzbl %al,%eax
 3f6:	83 ec 0c             	sub    $0xc,%esp
 3f9:	50                   	push   %eax
 3fa:	e8 fc ff ff ff       	call   3fb <floppy_disk_calibrate+0x44>
 3ff:	83 c4 10             	add    $0x10,%esp
		floppy_disk_wait_irq();
 402:	e8 fc ff ff ff       	call   403 <floppy_disk_calibrate+0x4c>
		floppy_disk_check_int(&st0, &cyl);
 407:	83 ec 08             	sub    $0x8,%esp
 40a:	8d 45 ec             	lea    -0x14(%ebp),%eax
 40d:	50                   	push   %eax
 40e:	8d 45 f0             	lea    -0x10(%ebp),%eax
 411:	50                   	push   %eax
 412:	e8 fc ff ff ff       	call   413 <floppy_disk_calibrate+0x5c>
 417:	83 c4 10             	add    $0x10,%esp

		// Check if cylinder 0 was found
		if (!cyl)
 41a:	8b 45 ec             	mov    -0x14(%ebp),%eax
 41d:	85 c0                	test   %eax,%eax
 41f:	75 14                	jne    435 <floppy_disk_calibrate+0x7e>
		{
			floppy_disk_set_motor(0);
 421:	83 ec 0c             	sub    $0xc,%esp
 424:	6a 00                	push   $0x0
 426:	e8 fc ff ff ff       	call   427 <floppy_disk_calibrate+0x70>
 42b:	83 c4 10             	add    $0x10,%esp
			return FLOPPY_GOOD;
 42e:	b8 00 00 00 00       	mov    $0x0,%eax
 433:	eb 1c                	jmp    451 <floppy_disk_calibrate+0x9a>

	// Turn on motor

	floppy_disk_set_motor(1);

	for (int i = 0; i < 10; ++i)
 435:	83 45 f4 01          	addl   $0x1,-0xc(%ebp)
 439:	83 7d f4 09          	cmpl   $0x9,-0xc(%ebp)
 43d:	7e a4                	jle    3e3 <floppy_disk_calibrate+0x2c>
			floppy_disk_set_motor(0);
			return FLOPPY_GOOD;
		}
	}

	floppy_disk_set_motor(0);
 43f:	83 ec 0c             	sub    $0xc,%esp
 442:	6a 00                	push   $0x0
 444:	e8 fc ff ff ff       	call   445 <floppy_disk_calibrate+0x8e>
 449:	83 c4 10             	add    $0x10,%esp
	return FLOPPY_BAD;
 44c:	b8 ff ff ff ff       	mov    $0xffffffff,%eax
}
 451:	c9                   	leave  
 452:	c3                   	ret    

00000453 <floppy_disk_disable_controller>:

void floppy_disk_disable_controller()
{
 453:	55                   	push   %ebp
 454:	89 e5                	mov    %esp,%ebp
 456:	83 ec 08             	sub    $0x8,%esp
	floppy_disk_write_dor(0);
 459:	83 ec 0c             	sub    $0xc,%esp
 45c:	6a 00                	push   $0x0
 45e:	e8 fc ff ff ff       	call   45f <floppy_disk_disable_controller+0xc>
 463:	83 c4 10             	add    $0x10,%esp
}
 466:	90                   	nop
 467:	c9                   	leave  
 468:	c3                   	ret    

00000469 <floppy_disk_enable_controller>:

void floppy_disk_enable_controller()
{
 469:	55                   	push   %ebp
 46a:	89 e5                	mov    %esp,%ebp
 46c:	83 ec 08             	sub    $0x8,%esp
	floppy_disk_write_dor(FLOPPY_DISK_DOR_MASK_RESET | FLOPPY_DISK_DOR_MASK_DMA);
 46f:	83 ec 0c             	sub    $0xc,%esp
 472:	6a 0c                	push   $0xc
 474:	e8 fc ff ff ff       	call   475 <floppy_disk_enable_controller+0xc>
 479:	83 c4 10             	add    $0x10,%esp
}
 47c:	90                   	nop
 47d:	c9                   	leave  
 47e:	c3                   	ret    

0000047f <floppy_disk_reset>:

void floppy_disk_reset()
{
 47f:	55                   	push   %ebp
 480:	89 e5                	mov    %esp,%ebp
 482:	83 ec 18             	sub    $0x18,%esp
	uint32_t st0;
	uint32_t cyl;

	floppy_disk_disable_controller();
 485:	e8 fc ff ff ff       	call   486 <floppy_disk_reset+0x7>

	floppy_disk_enable_controller();
 48a:	e8 fc ff ff ff       	call   48b <floppy_disk_reset+0xc>

	floppy_disk_wait_irq();
 48f:	e8 fc ff ff ff       	call   490 <floppy_disk_reset+0x11>

	// Transfer speed 500 kb/s

	floppy_disk_write_ccr(0);
 494:	83 ec 0c             	sub    $0xc,%esp
 497:	6a 00                	push   $0x0
 499:	e8 fc ff ff ff       	call   49a <floppy_disk_reset+0x1b>
 49e:	83 c4 10             	add    $0x10,%esp

	// Send CHECK INT/SENSE INTERRUPT command to all drives

	for (int i = 0; i < 4; ++i)
 4a1:	c7 45 f4 00 00 00 00 	movl   $0x0,-0xc(%ebp)
 4a8:	eb 17                	jmp    4c1 <floppy_disk_reset+0x42>
	{
		floppy_disk_check_int(&st0, &cyl);
 4aa:	83 ec 08             	sub    $0x8,%esp
 4ad:	8d 45 ec             	lea    -0x14(%ebp),%eax
 4b0:	50                   	push   %eax
 4b1:	8d 45 f0             	lea    -0x10(%ebp),%eax
 4b4:	50                   	push   %eax
 4b5:	e8 fc ff ff ff       	call   4b6 <floppy_disk_reset+0x37>
 4ba:	83 c4 10             	add    $0x10,%esp

	floppy_disk_write_ccr(0);

	// Send CHECK INT/SENSE INTERRUPT command to all drives

	for (int i = 0; i < 4; ++i)
 4bd:	83 45 f4 01          	addl   $0x1,-0xc(%ebp)
 4c1:	83 7d f4 03          	cmpl   $0x3,-0xc(%ebp)
 4c5:	7e e3                	jle    4aa <floppy_disk_reset+0x2b>
		floppy_disk_check_int(&st0, &cyl);
	}

	// Transfer speed 500 kb/s

	floppy_disk_write_ccr(0);
 4c7:	83 ec 0c             	sub    $0xc,%esp
 4ca:	6a 00                	push   $0x0
 4cc:	e8 fc ff ff ff       	call   4cd <floppy_disk_reset+0x4e>
 4d1:	83 c4 10             	add    $0x10,%esp
	// Pass mechanincal info.
	// Steprate = 3ms
	// load time = 16ms
	// unload time = 240ms
	// Use DMA
	floppy_disk_configure_drive(3, 16, 240, 1);
 4d4:	6a 01                	push   $0x1
 4d6:	68 f0 00 00 00       	push   $0xf0
 4db:	6a 10                	push   $0x10
 4dd:	6a 03                	push   $0x3
 4df:	e8 fc ff ff ff       	call   4e0 <floppy_disk_reset+0x61>
 4e4:	83 c4 10             	add    $0x10,%esp

	// Calibrate disk
	floppy_disk_calibrate(_CurrentDrive);
 4e7:	0f b6 05 00 00 00 00 	movzbl 0x0,%eax
 4ee:	0f b6 c0             	movzbl %al,%eax
 4f1:	83 ec 0c             	sub    $0xc,%esp
 4f4:	50                   	push   %eax
 4f5:	e8 fc ff ff ff       	call   4f6 <floppy_disk_reset+0x77>
 4fa:	83 c4 10             	add    $0x10,%esp
}
 4fd:	90                   	nop
 4fe:	c9                   	leave  
 4ff:	c3                   	ret    

00000500 <floppy_disk_read_sector_imp>:

void floppy_disk_read_sector_imp(const uint8_t head, const uint8_t track, const uint8_t sector)
{
 500:	55                   	push   %ebp
 501:	89 e5                	mov    %esp,%ebp
 503:	83 ec 28             	sub    $0x28,%esp
 506:	8b 4d 08             	mov    0x8(%ebp),%ecx
 509:	8b 55 0c             	mov    0xc(%ebp),%edx
 50c:	8b 45 10             	mov    0x10(%ebp),%eax
 50f:	88 4d e4             	mov    %cl,-0x1c(%ebp)
 512:	88 55 e0             	mov    %dl,-0x20(%ebp)
 515:	88 45 dc             	mov    %al,-0x24(%ebp)
	uint32_t st0;
	uint32_t cyl;

	// Set DMA to read
	dma_initialize_floppy((uint8_t*)DMA_BUFFER, 512);
 518:	a1 00 00 00 00       	mov    0x0,%eax
 51d:	83 ec 08             	sub    $0x8,%esp
 520:	68 00 02 00 00       	push   $0x200
 525:	50                   	push   %eax
 526:	e8 fc ff ff ff       	call   527 <floppy_disk_read_sector_imp+0x27>
 52b:	83 c4 10             	add    $0x10,%esp
	dma_set_read(FDC_DMA_CHANNEL);
 52e:	b8 02 00 00 00       	mov    $0x2,%eax
 533:	83 ec 0c             	sub    $0xc,%esp
 536:	50                   	push   %eax
 537:	e8 fc ff ff ff       	call   538 <floppy_disk_read_sector_imp+0x38>
 53c:	83 c4 10             	add    $0x10,%esp

	_FloppyDiskIRQ = 0;
 53f:	c6 05 01 00 00 00 00 	movb   $0x0,0x1


	// Read in a sector
	floppy_disk_send_command(
 546:	83 ec 0c             	sub    $0xc,%esp
 549:	68 e6 00 00 00       	push   $0xe6
 54e:	e8 fc ff ff ff       	call   54f <floppy_disk_read_sector_imp+0x4f>
 553:	83 c4 10             	add    $0x10,%esp
		FDC_CMD_READ_SECT| 
		FDC_CMD_EXT_MULTITRACK |
		FDC_CMD_EXT_SKIP |
		FDC_CMD_EXT_DENSITY);

	floppy_disk_send_command((head << 2) | _CurrentDrive);
 556:	0f b6 45 e4          	movzbl -0x1c(%ebp),%eax
 55a:	c1 e0 02             	shl    $0x2,%eax
 55d:	89 c2                	mov    %eax,%edx
 55f:	0f b6 05 00 00 00 00 	movzbl 0x0,%eax
 566:	09 d0                	or     %edx,%eax
 568:	0f b6 c0             	movzbl %al,%eax
 56b:	83 ec 0c             	sub    $0xc,%esp
 56e:	50                   	push   %eax
 56f:	e8 fc ff ff ff       	call   570 <floppy_disk_read_sector_imp+0x70>
 574:	83 c4 10             	add    $0x10,%esp
	floppy_disk_send_command(track);
 577:	0f b6 45 e0          	movzbl -0x20(%ebp),%eax
 57b:	83 ec 0c             	sub    $0xc,%esp
 57e:	50                   	push   %eax
 57f:	e8 fc ff ff ff       	call   580 <floppy_disk_read_sector_imp+0x80>
 584:	83 c4 10             	add    $0x10,%esp
	floppy_disk_send_command(head);
 587:	0f b6 45 e4          	movzbl -0x1c(%ebp),%eax
 58b:	83 ec 0c             	sub    $0xc,%esp
 58e:	50                   	push   %eax
 58f:	e8 fc ff ff ff       	call   590 <floppy_disk_read_sector_imp+0x90>
 594:	83 c4 10             	add    $0x10,%esp
	floppy_disk_send_command(sector);
 597:	0f b6 45 dc          	movzbl -0x24(%ebp),%eax
 59b:	83 ec 0c             	sub    $0xc,%esp
 59e:	50                   	push   %eax
 59f:	e8 fc ff ff ff       	call   5a0 <floppy_disk_read_sector_imp+0xa0>
 5a4:	83 c4 10             	add    $0x10,%esp
	floppy_disk_send_command(FLOPPY_DISK_DTL_512);
 5a7:	83 ec 0c             	sub    $0xc,%esp
 5aa:	6a 02                	push   $0x2
 5ac:	e8 fc ff ff ff       	call   5ad <floppy_disk_read_sector_imp+0xad>
 5b1:	83 c4 10             	add    $0x10,%esp
	floppy_disk_send_command(((sector + 1) >= FLOPPY_SECTORS_PER_TRACK) ? FLOPPY_SECTORS_PER_TRACK : sector + 1);
 5b4:	0f b6 45 dc          	movzbl -0x24(%ebp),%eax
 5b8:	83 c0 01             	add    $0x1,%eax
 5bb:	ba 12 00 00 00       	mov    $0x12,%edx
 5c0:	39 d0                	cmp    %edx,%eax
 5c2:	0f 4f c2             	cmovg  %edx,%eax
 5c5:	0f b6 c0             	movzbl %al,%eax
 5c8:	83 ec 0c             	sub    $0xc,%esp
 5cb:	50                   	push   %eax
 5cc:	e8 fc ff ff ff       	call   5cd <floppy_disk_read_sector_imp+0xcd>
 5d1:	83 c4 10             	add    $0x10,%esp
	floppy_disk_send_command(FLOPPY_DISK_GAP3_LENGTH_3_5);
 5d4:	83 ec 0c             	sub    $0xc,%esp
 5d7:	6a 1b                	push   $0x1b
 5d9:	e8 fc ff ff ff       	call   5da <floppy_disk_read_sector_imp+0xda>
 5de:	83 c4 10             	add    $0x10,%esp
	floppy_disk_send_command(0xFF); // End of command
 5e1:	83 ec 0c             	sub    $0xc,%esp
 5e4:	68 ff 00 00 00       	push   $0xff
 5e9:	e8 fc ff ff ff       	call   5ea <floppy_disk_read_sector_imp+0xea>
 5ee:	83 c4 10             	add    $0x10,%esp

	printf("Waiting for READ irq fire\n");
 5f1:	83 ec 0c             	sub    $0xc,%esp
 5f4:	68 78 00 00 00       	push   $0x78
 5f9:	e8 fc ff ff ff       	call   5fa <floppy_disk_read_sector_imp+0xfa>
 5fe:	83 c4 10             	add    $0x10,%esp

	floppy_disk_wait_irq();
 601:	e8 fc ff ff ff       	call   602 <floppy_disk_read_sector_imp+0x102>

	printf("Got READ irq\n");
 606:	83 ec 0c             	sub    $0xc,%esp
 609:	68 93 00 00 00       	push   $0x93
 60e:	e8 fc ff ff ff       	call   60f <floppy_disk_read_sector_imp+0x10f>
 613:	83 c4 10             	add    $0x10,%esp
	//Return byte 5 : Sector number
	//Return byte 6 : Sector size

	rw_return_t res;

	res.st0 = floppy_disk_read_data();
 616:	e8 fc ff ff ff       	call   617 <floppy_disk_read_sector_imp+0x117>
 61b:	88 45 e9             	mov    %al,-0x17(%ebp)
	res.st1 = floppy_disk_read_data();
 61e:	e8 fc ff ff ff       	call   61f <floppy_disk_read_sector_imp+0x11f>
 623:	88 45 ea             	mov    %al,-0x16(%ebp)
	res.st2 = floppy_disk_read_data();
 626:	e8 fc ff ff ff       	call   627 <floppy_disk_read_sector_imp+0x127>
 62b:	88 45 eb             	mov    %al,-0x15(%ebp)
	res.currentCylinder = floppy_disk_read_data();
 62e:	e8 fc ff ff ff       	call   62f <floppy_disk_read_sector_imp+0x12f>
 633:	88 45 ec             	mov    %al,-0x14(%ebp)
	res.currentHead = floppy_disk_read_data();
 636:	e8 fc ff ff ff       	call   637 <floppy_disk_read_sector_imp+0x137>
 63b:	88 45 ed             	mov    %al,-0x13(%ebp)
	res.sectorNumber = floppy_disk_read_data();
 63e:	e8 fc ff ff ff       	call   63f <floppy_disk_read_sector_imp+0x13f>
 643:	88 45 ee             	mov    %al,-0x12(%ebp)
	res.sectorSize = floppy_disk_read_data();
 646:	e8 fc ff ff ff       	call   647 <floppy_disk_read_sector_imp+0x147>
 64b:	88 45 ef             	mov    %al,-0x11(%ebp)

	// Let FDC know we handled interrupt.
	floppy_disk_check_int(&st0, &cyl);
 64e:	83 ec 08             	sub    $0x8,%esp
 651:	8d 45 f0             	lea    -0x10(%ebp),%eax
 654:	50                   	push   %eax
 655:	8d 45 f4             	lea    -0xc(%ebp),%eax
 658:	50                   	push   %eax
 659:	e8 fc ff ff ff       	call   65a <floppy_disk_read_sector_imp+0x15a>
 65e:	83 c4 10             	add    $0x10,%esp

	static uint32_t readCount = 0;

	//monitor_printf("\n%i",++readCount);
}
 661:	90                   	nop
 662:	c9                   	leave  
 663:	c3                   	ret    

00000664 <floppy_disk_write_sector_imp>:

void floppy_disk_write_sector_imp(const uint8_t head, const uint8_t track, const uint8_t sector)
{
 664:	55                   	push   %ebp
 665:	89 e5                	mov    %esp,%ebp
 667:	83 ec 28             	sub    $0x28,%esp
 66a:	8b 4d 08             	mov    0x8(%ebp),%ecx
 66d:	8b 55 0c             	mov    0xc(%ebp),%edx
 670:	8b 45 10             	mov    0x10(%ebp),%eax
 673:	88 4d e4             	mov    %cl,-0x1c(%ebp)
 676:	88 55 e0             	mov    %dl,-0x20(%ebp)
 679:	88 45 dc             	mov    %al,-0x24(%ebp)
	uint32_t st0;
	uint32_t cyl;

	// Set DMA to write
	dma_initialize_floppy((uint8_t*)DMA_BUFFER, 512);
 67c:	a1 00 00 00 00       	mov    0x0,%eax
 681:	83 ec 08             	sub    $0x8,%esp
 684:	68 00 02 00 00       	push   $0x200
 689:	50                   	push   %eax
 68a:	e8 fc ff ff ff       	call   68b <floppy_disk_write_sector_imp+0x27>
 68f:	83 c4 10             	add    $0x10,%esp
	dma_set_write(FDC_DMA_CHANNEL);
 692:	b8 02 00 00 00       	mov    $0x2,%eax
 697:	83 ec 0c             	sub    $0xc,%esp
 69a:	50                   	push   %eax
 69b:	e8 fc ff ff ff       	call   69c <floppy_disk_write_sector_imp+0x38>
 6a0:	83 c4 10             	add    $0x10,%esp

	// Read in a sector
	floppy_disk_send_command(
 6a3:	83 ec 0c             	sub    $0xc,%esp
 6a6:	68 e5 00 00 00       	push   $0xe5
 6ab:	e8 fc ff ff ff       	call   6ac <floppy_disk_write_sector_imp+0x48>
 6b0:	83 c4 10             	add    $0x10,%esp
		FDC_CMD_WRITE_SECT |
		FDC_CMD_EXT_MULTITRACK |
		FDC_CMD_EXT_SKIP |
		FDC_CMD_EXT_DENSITY);
	floppy_disk_send_command((head << 2) | _CurrentDrive);
 6b3:	0f b6 45 e4          	movzbl -0x1c(%ebp),%eax
 6b7:	c1 e0 02             	shl    $0x2,%eax
 6ba:	89 c2                	mov    %eax,%edx
 6bc:	0f b6 05 00 00 00 00 	movzbl 0x0,%eax
 6c3:	09 d0                	or     %edx,%eax
 6c5:	0f b6 c0             	movzbl %al,%eax
 6c8:	83 ec 0c             	sub    $0xc,%esp
 6cb:	50                   	push   %eax
 6cc:	e8 fc ff ff ff       	call   6cd <floppy_disk_write_sector_imp+0x69>
 6d1:	83 c4 10             	add    $0x10,%esp
	floppy_disk_send_command(track);
 6d4:	0f b6 45 e0          	movzbl -0x20(%ebp),%eax
 6d8:	83 ec 0c             	sub    $0xc,%esp
 6db:	50                   	push   %eax
 6dc:	e8 fc ff ff ff       	call   6dd <floppy_disk_write_sector_imp+0x79>
 6e1:	83 c4 10             	add    $0x10,%esp
	floppy_disk_send_command(head);
 6e4:	0f b6 45 e4          	movzbl -0x1c(%ebp),%eax
 6e8:	83 ec 0c             	sub    $0xc,%esp
 6eb:	50                   	push   %eax
 6ec:	e8 fc ff ff ff       	call   6ed <floppy_disk_write_sector_imp+0x89>
 6f1:	83 c4 10             	add    $0x10,%esp
	floppy_disk_send_command(sector);
 6f4:	0f b6 45 dc          	movzbl -0x24(%ebp),%eax
 6f8:	83 ec 0c             	sub    $0xc,%esp
 6fb:	50                   	push   %eax
 6fc:	e8 fc ff ff ff       	call   6fd <floppy_disk_write_sector_imp+0x99>
 701:	83 c4 10             	add    $0x10,%esp
	floppy_disk_send_command(FLOPPY_DISK_DTL_512);
 704:	83 ec 0c             	sub    $0xc,%esp
 707:	6a 02                	push   $0x2
 709:	e8 fc ff ff ff       	call   70a <floppy_disk_write_sector_imp+0xa6>
 70e:	83 c4 10             	add    $0x10,%esp
	floppy_disk_send_command(((sector + 1) >= FLOPPY_SECTORS_PER_TRACK) ? FLOPPY_SECTORS_PER_TRACK : sector + 1);
 711:	0f b6 45 dc          	movzbl -0x24(%ebp),%eax
 715:	83 c0 01             	add    $0x1,%eax
 718:	ba 12 00 00 00       	mov    $0x12,%edx
 71d:	39 d0                	cmp    %edx,%eax
 71f:	0f 4f c2             	cmovg  %edx,%eax
 722:	0f b6 c0             	movzbl %al,%eax
 725:	83 ec 0c             	sub    $0xc,%esp
 728:	50                   	push   %eax
 729:	e8 fc ff ff ff       	call   72a <floppy_disk_write_sector_imp+0xc6>
 72e:	83 c4 10             	add    $0x10,%esp
	floppy_disk_send_command(FLOPPY_DISK_GAP3_LENGTH_3_5);
 731:	83 ec 0c             	sub    $0xc,%esp
 734:	6a 1b                	push   $0x1b
 736:	e8 fc ff ff ff       	call   737 <floppy_disk_write_sector_imp+0xd3>
 73b:	83 c4 10             	add    $0x10,%esp
	floppy_disk_send_command(0xFF); // End of command
 73e:	83 ec 0c             	sub    $0xc,%esp
 741:	68 ff 00 00 00       	push   $0xff
 746:	e8 fc ff ff ff       	call   747 <floppy_disk_write_sector_imp+0xe3>
 74b:	83 c4 10             	add    $0x10,%esp

	floppy_disk_wait_irq();
 74e:	e8 fc ff ff ff       	call   74f <floppy_disk_write_sector_imp+0xeb>
	//Return byte 5 : Sector number
	//Return byte 6 : Sector size

	rw_return_t res;

	res.st0 = floppy_disk_read_data();
 753:	e8 fc ff ff ff       	call   754 <floppy_disk_write_sector_imp+0xf0>
 758:	88 45 e9             	mov    %al,-0x17(%ebp)
	res.st1 = floppy_disk_read_data();
 75b:	e8 fc ff ff ff       	call   75c <floppy_disk_write_sector_imp+0xf8>
 760:	88 45 ea             	mov    %al,-0x16(%ebp)
	res.st2 = floppy_disk_read_data();
 763:	e8 fc ff ff ff       	call   764 <floppy_disk_write_sector_imp+0x100>
 768:	88 45 eb             	mov    %al,-0x15(%ebp)
	res.currentCylinder = floppy_disk_read_data();
 76b:	e8 fc ff ff ff       	call   76c <floppy_disk_write_sector_imp+0x108>
 770:	88 45 ec             	mov    %al,-0x14(%ebp)
	res.currentHead = floppy_disk_read_data();
 773:	e8 fc ff ff ff       	call   774 <floppy_disk_write_sector_imp+0x110>
 778:	88 45 ed             	mov    %al,-0x13(%ebp)
	res.sectorNumber = floppy_disk_read_data();
 77b:	e8 fc ff ff ff       	call   77c <floppy_disk_write_sector_imp+0x118>
 780:	88 45 ee             	mov    %al,-0x12(%ebp)
	res.sectorSize = floppy_disk_read_data();
 783:	e8 fc ff ff ff       	call   784 <floppy_disk_write_sector_imp+0x120>
 788:	88 45 ef             	mov    %al,-0x11(%ebp)

	// Let FDC know we handled interrupt.
	floppy_disk_check_int(&st0, &cyl);
 78b:	83 ec 08             	sub    $0x8,%esp
 78e:	8d 45 f0             	lea    -0x10(%ebp),%eax
 791:	50                   	push   %eax
 792:	8d 45 f4             	lea    -0xc(%ebp),%eax
 795:	50                   	push   %eax
 796:	e8 fc ff ff ff       	call   797 <floppy_disk_write_sector_imp+0x133>
 79b:	83 c4 10             	add    $0x10,%esp
}
 79e:	90                   	nop
 79f:	c9                   	leave  
 7a0:	c3                   	ret    

000007a1 <floppy_disk_seek>:

const FLOPPY_DISK_ERROR floppy_disk_seek(const uint32_t cyl, const uint32_t head)
{
 7a1:	55                   	push   %ebp
 7a2:	89 e5                	mov    %esp,%ebp
 7a4:	83 ec 18             	sub    $0x18,%esp
	uint32_t st0;
	uint32_t cyl0;

	// Sanity check

	if (_CurrentDrive >= 4)
 7a7:	0f b6 05 00 00 00 00 	movzbl 0x0,%eax
 7ae:	3c 03                	cmp    $0x3,%al
 7b0:	76 0a                	jbe    7bc <floppy_disk_seek+0x1b>
	{
		return FLOPPY_INVALID_DRIVE;
 7b2:	b8 fe ff ff ff       	mov    $0xfffffffe,%eax
 7b7:	e9 ae 00 00 00       	jmp    86a <floppy_disk_seek+0xc9>
	}

	for (int i = 0; i < 10; ++i)
 7bc:	c7 45 f4 00 00 00 00 	movl   $0x0,-0xc(%ebp)
 7c3:	e9 93 00 00 00       	jmp    85b <floppy_disk_seek+0xba>
	{
		_FloppyDiskIRQ = 0;
 7c8:	c6 05 01 00 00 00 00 	movb   $0x0,0x1


		floppy_disk_send_command(FDC_CMD_SEEK);
 7cf:	83 ec 0c             	sub    $0xc,%esp
 7d2:	6a 0f                	push   $0xf
 7d4:	e8 fc ff ff ff       	call   7d5 <floppy_disk_seek+0x34>
 7d9:	83 c4 10             	add    $0x10,%esp
		floppy_disk_send_command((head) << 2 | _CurrentDrive);
 7dc:	8b 45 0c             	mov    0xc(%ebp),%eax
 7df:	8d 14 85 00 00 00 00 	lea    0x0(,%eax,4),%edx
 7e6:	0f b6 05 00 00 00 00 	movzbl 0x0,%eax
 7ed:	09 d0                	or     %edx,%eax
 7ef:	0f b6 c0             	movzbl %al,%eax
 7f2:	83 ec 0c             	sub    $0xc,%esp
 7f5:	50                   	push   %eax
 7f6:	e8 fc ff ff ff       	call   7f7 <floppy_disk_seek+0x56>
 7fb:	83 c4 10             	add    $0x10,%esp
		floppy_disk_send_command(cyl);
 7fe:	8b 45 08             	mov    0x8(%ebp),%eax
 801:	0f b6 c0             	movzbl %al,%eax
 804:	83 ec 0c             	sub    $0xc,%esp
 807:	50                   	push   %eax
 808:	e8 fc ff ff ff       	call   809 <floppy_disk_seek+0x68>
 80d:	83 c4 10             	add    $0x10,%esp



		printf("Waiting for SEEK irq fire\n");
 810:	83 ec 0c             	sub    $0xc,%esp
 813:	68 a1 00 00 00       	push   $0xa1
 818:	e8 fc ff ff ff       	call   819 <floppy_disk_seek+0x78>
 81d:	83 c4 10             	add    $0x10,%esp

		// Wait for results
		floppy_disk_wait_irq();
 820:	e8 fc ff ff ff       	call   821 <floppy_disk_seek+0x80>

		printf("Got SEEK irq\n");
 825:	83 ec 0c             	sub    $0xc,%esp
 828:	68 bc 00 00 00       	push   $0xbc
 82d:	e8 fc ff ff ff       	call   82e <floppy_disk_seek+0x8d>
 832:	83 c4 10             	add    $0x10,%esp

		floppy_disk_check_int(&st0, &cyl0);
 835:	83 ec 08             	sub    $0x8,%esp
 838:	8d 45 ec             	lea    -0x14(%ebp),%eax
 83b:	50                   	push   %eax
 83c:	8d 45 f0             	lea    -0x10(%ebp),%eax
 83f:	50                   	push   %eax
 840:	e8 fc ff ff ff       	call   841 <floppy_disk_seek+0xa0>
 845:	83 c4 10             	add    $0x10,%esp

		// Have we found the cylinder?
		if (cyl == cyl0)
 848:	8b 45 ec             	mov    -0x14(%ebp),%eax
 84b:	39 45 08             	cmp    %eax,0x8(%ebp)
 84e:	75 07                	jne    857 <floppy_disk_seek+0xb6>
		{
			return FLOPPY_GOOD;
 850:	b8 00 00 00 00       	mov    $0x0,%eax
 855:	eb 13                	jmp    86a <floppy_disk_seek+0xc9>
	if (_CurrentDrive >= 4)
	{
		return FLOPPY_INVALID_DRIVE;
	}

	for (int i = 0; i < 10; ++i)
 857:	83 45 f4 01          	addl   $0x1,-0xc(%ebp)
 85b:	83 7d f4 09          	cmpl   $0x9,-0xc(%ebp)
 85f:	0f 8e 63 ff ff ff    	jle    7c8 <floppy_disk_seek+0x27>
		if (cyl == cyl0)
		{
			return FLOPPY_GOOD;
		}
	}
	return FLOPPY_BAD;
 865:	b8 ff ff ff ff       	mov    $0xffffffff,%eax
}
 86a:	c9                   	leave  
 86b:	c3                   	ret    

0000086c <floppy_disk_set_dma>:
// =====================================
// Public functions
// =====================================

void floppy_disk_set_dma(const int addr) 
{
 86c:	55                   	push   %ebp
 86d:	89 e5                	mov    %esp,%ebp
	DMA_BUFFER = addr;
 86f:	8b 45 08             	mov    0x8(%ebp),%eax
 872:	a3 00 00 00 00       	mov    %eax,0x0
}
 877:	90                   	nop
 878:	5d                   	pop    %ebp
 879:	c3                   	ret    

0000087a <floppy_disk_install>:

void floppy_disk_install(const int irq)
{
 87a:	55                   	push   %ebp
 87b:	89 e5                	mov    %esp,%ebp
 87d:	83 ec 08             	sub    $0x8,%esp
	// Install IRQ handler
	setvect(irq, i86_floppy_irq);
 880:	83 ec 08             	sub    $0x8,%esp
 883:	68 00 00 00 00       	push   $0x0
 888:	ff 75 08             	pushl  0x8(%ebp)
 88b:	e8 fc ff ff ff       	call   88c <floppy_disk_install+0x12>
 890:	83 c4 10             	add    $0x10,%esp

	// Reset floppy disk
	floppy_disk_reset();
 893:	e8 fc ff ff ff       	call   894 <floppy_disk_install+0x1a>

	// Set drive information
	floppy_disk_configure_drive(13, 1, 0xF, 1);
 898:	6a 01                	push   $0x1
 89a:	6a 0f                	push   $0xf
 89c:	6a 01                	push   $0x1
 89e:	6a 0d                	push   $0xd
 8a0:	e8 fc ff ff ff       	call   8a1 <floppy_disk_install+0x27>
 8a5:	83 c4 10             	add    $0x10,%esp
}
 8a8:	90                   	nop
 8a9:	c9                   	leave  
 8aa:	c3                   	ret    

000008ab <floppy_disk_set_working_drive>:

void floppy_disk_set_working_drive(const uint8_t drive)
{
 8ab:	55                   	push   %ebp
 8ac:	89 e5                	mov    %esp,%ebp
 8ae:	83 ec 04             	sub    $0x4,%esp
 8b1:	8b 45 08             	mov    0x8(%ebp),%eax
 8b4:	88 45 fc             	mov    %al,-0x4(%ebp)
	if (drive < 4)
 8b7:	80 7d fc 03          	cmpb   $0x3,-0x4(%ebp)
 8bb:	77 09                	ja     8c6 <floppy_disk_set_working_drive+0x1b>
	{
		_CurrentDrive = drive;
 8bd:	0f b6 45 fc          	movzbl -0x4(%ebp),%eax
 8c1:	a2 00 00 00 00       	mov    %al,0x0
	}
}
 8c6:	90                   	nop
 8c7:	c9                   	leave  
 8c8:	c3                   	ret    

000008c9 <floppy_disk_get_working_drive>:

const uint8_t floppy_disk_get_working_drive()
{
 8c9:	55                   	push   %ebp
 8ca:	89 e5                	mov    %esp,%ebp
	return _CurrentDrive;
 8cc:	0f b6 05 00 00 00 00 	movzbl 0x0,%eax
}
 8d3:	5d                   	pop    %ebp
 8d4:	c3                   	ret    

000008d5 <floppy_disk_read_sector>:

const uint8_t* floppy_disk_read_sector(const int sectorLBA)
{
 8d5:	55                   	push   %ebp
 8d6:	89 e5                	mov    %esp,%ebp
 8d8:	83 ec 18             	sub    $0x18,%esp
	// Sanity check

	if (_CurrentDrive >= 4)
 8db:	0f b6 05 00 00 00 00 	movzbl 0x0,%eax
 8e2:	3c 03                	cmp    $0x3,%al
 8e4:	76 0a                	jbe    8f0 <floppy_disk_read_sector+0x1b>
	{
		return 0;
 8e6:	b8 00 00 00 00       	mov    $0x0,%eax
 8eb:	e9 8b 00 00 00       	jmp    97b <floppy_disk_read_sector+0xa6>
	}

	// Convert LBA sector to CHS
	int head = 0;
 8f0:	c7 45 f4 00 00 00 00 	movl   $0x0,-0xc(%ebp)
	int track = 0;
 8f7:	c7 45 f0 00 00 00 00 	movl   $0x0,-0x10(%ebp)
	int sector = 1;
 8fe:	c7 45 ec 01 00 00 00 	movl   $0x1,-0x14(%ebp)
	floppy_disk_lba_to_chs(sectorLBA, &head, &track, &sector);
 905:	8d 45 ec             	lea    -0x14(%ebp),%eax
 908:	50                   	push   %eax
 909:	8d 45 f0             	lea    -0x10(%ebp),%eax
 90c:	50                   	push   %eax
 90d:	8d 45 f4             	lea    -0xc(%ebp),%eax
 910:	50                   	push   %eax
 911:	ff 75 08             	pushl  0x8(%ebp)
 914:	e8 fc ff ff ff       	call   915 <floppy_disk_read_sector+0x40>
 919:	83 c4 10             	add    $0x10,%esp


	//Turn on motor and seek track
	floppy_disk_set_motor(1);
 91c:	83 ec 0c             	sub    $0xc,%esp
 91f:	6a 01                	push   $0x1
 921:	e8 fc ff ff ff       	call   922 <floppy_disk_read_sector+0x4d>
 926:	83 c4 10             	add    $0x10,%esp
	if (floppy_disk_seek(track, head) != 0)
 929:	8b 45 f4             	mov    -0xc(%ebp),%eax
 92c:	89 c2                	mov    %eax,%edx
 92e:	8b 45 f0             	mov    -0x10(%ebp),%eax
 931:	83 ec 08             	sub    $0x8,%esp
 934:	52                   	push   %edx
 935:	50                   	push   %eax
 936:	e8 fc ff ff ff       	call   937 <floppy_disk_read_sector+0x62>
 93b:	83 c4 10             	add    $0x10,%esp
 93e:	85 c0                	test   %eax,%eax
 940:	74 07                	je     949 <floppy_disk_read_sector+0x74>
	{
		return 0;
 942:	b8 00 00 00 00       	mov    $0x0,%eax
 947:	eb 32                	jmp    97b <floppy_disk_read_sector+0xa6>
	}

	// Read sector and turn motor off
	floppy_disk_read_sector_imp(head, track, sector);
 949:	8b 45 ec             	mov    -0x14(%ebp),%eax
 94c:	0f b6 c8             	movzbl %al,%ecx
 94f:	8b 45 f0             	mov    -0x10(%ebp),%eax
 952:	0f b6 d0             	movzbl %al,%edx
 955:	8b 45 f4             	mov    -0xc(%ebp),%eax
 958:	0f b6 c0             	movzbl %al,%eax
 95b:	83 ec 04             	sub    $0x4,%esp
 95e:	51                   	push   %ecx
 95f:	52                   	push   %edx
 960:	50                   	push   %eax
 961:	e8 fc ff ff ff       	call   962 <floppy_disk_read_sector+0x8d>
 966:	83 c4 10             	add    $0x10,%esp
	floppy_disk_set_motor(0);
 969:	83 ec 0c             	sub    $0xc,%esp
 96c:	6a 00                	push   $0x0
 96e:	e8 fc ff ff ff       	call   96f <floppy_disk_read_sector+0x9a>
 973:	83 c4 10             	add    $0x10,%esp

	// Return ptr to dma buffer (maybe we should malloc a buffer and place it 
	// there)
	return (const uint8_t*)DMA_BUFFER;
 976:	a1 00 00 00 00       	mov    0x0,%eax
}
 97b:	c9                   	leave  
 97c:	c3                   	ret    

0000097d <floppy_disk_write_sector>:

void floppy_disk_write_sector(const uint8_t* buffer, const int sectorLBA)
{
 97d:	55                   	push   %ebp
 97e:	89 e5                	mov    %esp,%ebp
 980:	83 ec 18             	sub    $0x18,%esp
	// Sanity check
	if (_CurrentDrive >= 4)
 983:	0f b6 05 00 00 00 00 	movzbl 0x0,%eax
 98a:	3c 03                	cmp    $0x3,%al
 98c:	0f 87 9b 00 00 00    	ja     a2d <floppy_disk_write_sector+0xb0>
	{
		return;
	}

	// Copy data to dma
	memcpy((void*)DMA_BUFFER, buffer, 512);
 992:	a1 00 00 00 00       	mov    0x0,%eax
 997:	83 ec 04             	sub    $0x4,%esp
 99a:	68 00 02 00 00       	push   $0x200
 99f:	ff 75 08             	pushl  0x8(%ebp)
 9a2:	50                   	push   %eax
 9a3:	e8 fc ff ff ff       	call   9a4 <floppy_disk_write_sector+0x27>
 9a8:	83 c4 10             	add    $0x10,%esp

	// Convert LBA sector to CHS
	int head = 0;
 9ab:	c7 45 f4 00 00 00 00 	movl   $0x0,-0xc(%ebp)
	int track = 0;
 9b2:	c7 45 f0 00 00 00 00 	movl   $0x0,-0x10(%ebp)
	int sector = 1;
 9b9:	c7 45 ec 01 00 00 00 	movl   $0x1,-0x14(%ebp)
	floppy_disk_lba_to_chs(sectorLBA, &head, &track, &sector);
 9c0:	8d 45 ec             	lea    -0x14(%ebp),%eax
 9c3:	50                   	push   %eax
 9c4:	8d 45 f0             	lea    -0x10(%ebp),%eax
 9c7:	50                   	push   %eax
 9c8:	8d 45 f4             	lea    -0xc(%ebp),%eax
 9cb:	50                   	push   %eax
 9cc:	ff 75 0c             	pushl  0xc(%ebp)
 9cf:	e8 fc ff ff ff       	call   9d0 <floppy_disk_write_sector+0x53>
 9d4:	83 c4 10             	add    $0x10,%esp


	//Turn on motor and seek track
	floppy_disk_set_motor(1);
 9d7:	83 ec 0c             	sub    $0xc,%esp
 9da:	6a 01                	push   $0x1
 9dc:	e8 fc ff ff ff       	call   9dd <floppy_disk_write_sector+0x60>
 9e1:	83 c4 10             	add    $0x10,%esp
	if (floppy_disk_seek(track, head) != 0)
 9e4:	8b 45 f4             	mov    -0xc(%ebp),%eax
 9e7:	89 c2                	mov    %eax,%edx
 9e9:	8b 45 f0             	mov    -0x10(%ebp),%eax
 9ec:	83 ec 08             	sub    $0x8,%esp
 9ef:	52                   	push   %edx
 9f0:	50                   	push   %eax
 9f1:	e8 fc ff ff ff       	call   9f2 <floppy_disk_write_sector+0x75>
 9f6:	83 c4 10             	add    $0x10,%esp
 9f9:	85 c0                	test   %eax,%eax
 9fb:	75 33                	jne    a30 <floppy_disk_write_sector+0xb3>
	{
		return;
	}

	// Write sector and turn motor off
	floppy_disk_write_sector_imp(head, track, sector);
 9fd:	8b 45 ec             	mov    -0x14(%ebp),%eax
 a00:	0f b6 c8             	movzbl %al,%ecx
 a03:	8b 45 f0             	mov    -0x10(%ebp),%eax
 a06:	0f b6 d0             	movzbl %al,%edx
 a09:	8b 45 f4             	mov    -0xc(%ebp),%eax
 a0c:	0f b6 c0             	movzbl %al,%eax
 a0f:	83 ec 04             	sub    $0x4,%esp
 a12:	51                   	push   %ecx
 a13:	52                   	push   %edx
 a14:	50                   	push   %eax
 a15:	e8 fc ff ff ff       	call   a16 <floppy_disk_write_sector+0x99>
 a1a:	83 c4 10             	add    $0x10,%esp
	floppy_disk_set_motor(0);
 a1d:	83 ec 0c             	sub    $0xc,%esp
 a20:	6a 00                	push   $0x0
 a22:	e8 fc ff ff ff       	call   a23 <floppy_disk_write_sector+0xa6>
 a27:	83 c4 10             	add    $0x10,%esp

	return;
 a2a:	90                   	nop
 a2b:	eb 04                	jmp    a31 <floppy_disk_write_sector+0xb4>
void floppy_disk_write_sector(const uint8_t* buffer, const int sectorLBA)
{
	// Sanity check
	if (_CurrentDrive >= 4)
	{
		return;
 a2d:	90                   	nop
 a2e:	eb 01                	jmp    a31 <floppy_disk_write_sector+0xb4>

	//Turn on motor and seek track
	floppy_disk_set_motor(1);
	if (floppy_disk_seek(track, head) != 0)
	{
		return;
 a30:	90                   	nop
	// Write sector and turn motor off
	floppy_disk_write_sector_imp(head, track, sector);
	floppy_disk_set_motor(0);

	return;
}
 a31:	c9                   	leave  
 a32:	c3                   	ret    

00000a33 <floppy_disk_lba_to_chs>:

void floppy_disk_lba_to_chs(const int lba, int* head, int* track, int* sector)
{
 a33:	55                   	push   %ebp
 a34:	89 e5                	mov    %esp,%ebp
	*head = (lba % (FLOPPY_SECTORS_PER_TRACK * 2)) / (FLOPPY_SECTORS_PER_TRACK);
 a36:	b8 12 00 00 00       	mov    $0x12,%eax
 a3b:	8d 0c 00             	lea    (%eax,%eax,1),%ecx
 a3e:	8b 45 08             	mov    0x8(%ebp),%eax
 a41:	99                   	cltd   
 a42:	f7 f9                	idiv   %ecx
 a44:	89 d0                	mov    %edx,%eax
 a46:	b9 12 00 00 00       	mov    $0x12,%ecx
 a4b:	99                   	cltd   
 a4c:	f7 f9                	idiv   %ecx
 a4e:	89 c2                	mov    %eax,%edx
 a50:	8b 45 0c             	mov    0xc(%ebp),%eax
 a53:	89 10                	mov    %edx,(%eax)
	*track = lba / (FLOPPY_SECTORS_PER_TRACK * 2);
 a55:	b8 12 00 00 00       	mov    $0x12,%eax
 a5a:	8d 0c 00             	lea    (%eax,%eax,1),%ecx
 a5d:	8b 45 08             	mov    0x8(%ebp),%eax
 a60:	99                   	cltd   
 a61:	f7 f9                	idiv   %ecx
 a63:	89 c2                	mov    %eax,%edx
 a65:	8b 45 10             	mov    0x10(%ebp),%eax
 a68:	89 10                	mov    %edx,(%eax)
	*sector = lba % FLOPPY_SECTORS_PER_TRACK + 1;
 a6a:	b9 12 00 00 00       	mov    $0x12,%ecx
 a6f:	8b 45 08             	mov    0x8(%ebp),%eax
 a72:	99                   	cltd   
 a73:	f7 f9                	idiv   %ecx
 a75:	89 d0                	mov    %edx,%eax
 a77:	8d 50 01             	lea    0x1(%eax),%edx
 a7a:	8b 45 14             	mov    0x14(%ebp),%eax
 a7d:	89 10                	mov    %edx,(%eax)
 a7f:	90                   	nop
 a80:	5d                   	pop    %ebp
 a81:	c3                   	ret    

flush.o:     file format elf32-i386


Disassembly of section .text:

00000000 <gdt_flush>:
   0:	8b 44 24 04          	mov    0x4(%esp),%eax
   4:	0f 01 10             	lgdtl  (%eax)

00000007 <gdt_flush.flush>:
   7:	c3                   	ret    

00000008 <idt_flush>:
   8:	8b 44 24 04          	mov    0x4(%esp),%eax
   c:	0f 01 18             	lidtl  (%eax)
   f:	c3                   	ret    

gdt.o:     file format elf32-i386


Disassembly of section .text:

00000000 <gdt_set_descriptor>:
void gdt_set_descriptor(
	uint32_t i, 
	uint64_t base, 
	uint64_t limit, 
	uint8_t access, 
	uint8_t gran){
   0:	55                   	push   %ebp
   1:	89 e5                	mov    %esp,%ebp
   3:	83 ec 28             	sub    $0x28,%esp
   6:	8b 55 1c             	mov    0x1c(%ebp),%edx
   9:	8b 45 20             	mov    0x20(%ebp),%eax
   c:	8b 4d 0c             	mov    0xc(%ebp),%ecx
   f:	89 4d f0             	mov    %ecx,-0x10(%ebp)
  12:	8b 4d 10             	mov    0x10(%ebp),%ecx
  15:	89 4d f4             	mov    %ecx,-0xc(%ebp)
  18:	8b 4d 14             	mov    0x14(%ebp),%ecx
  1b:	89 4d e8             	mov    %ecx,-0x18(%ebp)
  1e:	8b 4d 18             	mov    0x18(%ebp),%ecx
  21:	89 4d ec             	mov    %ecx,-0x14(%ebp)
  24:	88 55 e4             	mov    %dl,-0x1c(%ebp)
  27:	88 45 e0             	mov    %al,-0x20(%ebp)

	if(i > MAX_DESCRIPTORS)
  2a:	83 7d 08 03          	cmpl   $0x3,0x8(%ebp)
  2e:	0f 87 bb 00 00 00    	ja     ef <gdt_set_descriptor+0xef>
		return;

	// Set memory to 0
	memset((void*)&_gdt[i],0,sizeof(gdt_descriptor));
  34:	8b 45 08             	mov    0x8(%ebp),%eax
  37:	c1 e0 03             	shl    $0x3,%eax
  3a:	05 00 00 00 00       	add    $0x0,%eax
  3f:	83 ec 04             	sub    $0x4,%esp
  42:	6a 08                	push   $0x8
  44:	6a 00                	push   $0x0
  46:	50                   	push   %eax
  47:	e8 fc ff ff ff       	call   48 <gdt_set_descriptor+0x48>
  4c:	83 c4 10             	add    $0x10,%esp

	// set limit and base addresses
	_gdt[i].baseLo	= (uint16_t)(base & 0xffff);
  4f:	8b 45 f0             	mov    -0x10(%ebp),%eax
  52:	89 c2                	mov    %eax,%edx
  54:	8b 45 08             	mov    0x8(%ebp),%eax
  57:	66 89 14 c5 02 00 00 	mov    %dx,0x2(,%eax,8)
  5e:	00 
	_gdt[i].baseMid	= (uint8_t)((base >> 16) & 0xff);
  5f:	8b 45 f0             	mov    -0x10(%ebp),%eax
  62:	8b 55 f4             	mov    -0xc(%ebp),%edx
  65:	0f ac d0 10          	shrd   $0x10,%edx,%eax
  69:	c1 ea 10             	shr    $0x10,%edx
  6c:	89 c2                	mov    %eax,%edx
  6e:	8b 45 08             	mov    0x8(%ebp),%eax
  71:	88 14 c5 04 00 00 00 	mov    %dl,0x4(,%eax,8)
	_gdt[i].baseHi	= (uint8_t)((base >> 24) & 0xff);
  78:	8b 45 f0             	mov    -0x10(%ebp),%eax
  7b:	8b 55 f4             	mov    -0xc(%ebp),%edx
  7e:	0f ac d0 18          	shrd   $0x18,%edx,%eax
  82:	c1 ea 18             	shr    $0x18,%edx
  85:	89 c2                	mov    %eax,%edx
  87:	8b 45 08             	mov    0x8(%ebp),%eax
  8a:	88 14 c5 07 00 00 00 	mov    %dl,0x7(,%eax,8)
	_gdt[i].limit	= (uint16_t)(limit & 0xffff);
  91:	8b 45 e8             	mov    -0x18(%ebp),%eax
  94:	89 c2                	mov    %eax,%edx
  96:	8b 45 08             	mov    0x8(%ebp),%eax
  99:	66 89 14 c5 00 00 00 	mov    %dx,0x0(,%eax,8)
  a0:	00 

	// set flags and granularity bytes
	_gdt[i].flags = access;
  a1:	8b 45 08             	mov    0x8(%ebp),%eax
  a4:	0f b6 55 e4          	movzbl -0x1c(%ebp),%edx
  a8:	88 14 c5 05 00 00 00 	mov    %dl,0x5(,%eax,8)
	_gdt[i].granularity = (uint8_t)((limit >> 16) & 0x0f);
  af:	8b 45 e8             	mov    -0x18(%ebp),%eax
  b2:	8b 55 ec             	mov    -0x14(%ebp),%edx
  b5:	0f ac d0 10          	shrd   $0x10,%edx,%eax
  b9:	c1 ea 10             	shr    $0x10,%edx
  bc:	83 e0 0f             	and    $0xf,%eax
  bf:	89 c2                	mov    %eax,%edx
  c1:	8b 45 08             	mov    0x8(%ebp),%eax
  c4:	88 14 c5 06 00 00 00 	mov    %dl,0x6(,%eax,8)
	_gdt[i].granularity |= gran & 0xf0;
  cb:	8b 45 08             	mov    0x8(%ebp),%eax
  ce:	0f b6 04 c5 06 00 00 	movzbl 0x6(,%eax,8),%eax
  d5:	00 
  d6:	89 c2                	mov    %eax,%edx
  d8:	0f b6 45 e0          	movzbl -0x20(%ebp),%eax
  dc:	83 e0 f0             	and    $0xfffffff0,%eax
  df:	09 d0                	or     %edx,%eax
  e1:	89 c2                	mov    %eax,%edx
  e3:	8b 45 08             	mov    0x8(%ebp),%eax
  e6:	88 14 c5 06 00 00 00 	mov    %dl,0x6(,%eax,8)
  ed:	eb 01                	jmp    f0 <gdt_set_descriptor+0xf0>
	uint64_t limit, 
	uint8_t access, 
	uint8_t gran){

	if(i > MAX_DESCRIPTORS)
		return;
  ef:	90                   	nop

	// set flags and granularity bytes
	_gdt[i].flags = access;
	_gdt[i].granularity = (uint8_t)((limit >> 16) & 0x0f);
	_gdt[i].granularity |= gran & 0xf0;
}
  f0:	c9                   	leave  
  f1:	c3                   	ret    

000000f2 <i86_gdt_get_descriptor>:

gdt_descriptor* i86_gdt_get_descriptor(int i){
  f2:	55                   	push   %ebp
  f3:	89 e5                	mov    %esp,%ebp
	if(i > MAX_DESCRIPTORS)
  f5:	8b 45 08             	mov    0x8(%ebp),%eax
  f8:	83 f8 03             	cmp    $0x3,%eax
  fb:	76 07                	jbe    104 <i86_gdt_get_descriptor+0x12>
		return 0;
  fd:	b8 00 00 00 00       	mov    $0x0,%eax
 102:	eb 0b                	jmp    10f <i86_gdt_get_descriptor+0x1d>

	return &_gdt[i];
 104:	8b 45 08             	mov    0x8(%ebp),%eax
 107:	c1 e0 03             	shl    $0x3,%eax
 10a:	05 00 00 00 00       	add    $0x0,%eax
}
 10f:	5d                   	pop    %ebp
 110:	c3                   	ret    

00000111 <i86_gdt_initialize>:

int i86_gdt_initialize(){
 111:	55                   	push   %ebp
 112:	89 e5                	mov    %esp,%ebp
 114:	83 ec 08             	sub    $0x8,%esp

	// set up gdtr
	_gdtr.m_limit = (uint16_t)((sizeof(gdt_descriptor) * MAX_DESCRIPTORS)-1);
 117:	66 c7 05 00 00 00 00 	movw   $0x17,0x0
 11e:	17 00 
	_gdtr.m_base = (uint32_t)&_gdt[0];
 120:	b8 00 00 00 00       	mov    $0x0,%eax
 125:	a3 02 00 00 00       	mov    %eax,0x2

	// set null descriptor
	gdt_set_descriptor(0, 0, 0, 0, 0);
 12a:	83 ec 04             	sub    $0x4,%esp
 12d:	6a 00                	push   $0x0
 12f:	6a 00                	push   $0x0
 131:	6a 00                	push   $0x0
 133:	6a 00                	push   $0x0
 135:	6a 00                	push   $0x0
 137:	6a 00                	push   $0x0
 139:	6a 00                	push   $0x0
 13b:	e8 fc ff ff ff       	call   13c <i86_gdt_initialize+0x2b>
 140:	83 c4 20             	add    $0x20,%esp

	// set default code descriptor
	gdt_set_descriptor (1,0,0xffffffff,
 143:	83 ec 04             	sub    $0x4,%esp
 146:	68 cf 00 00 00       	push   $0xcf
 14b:	68 9a 00 00 00       	push   $0x9a
 150:	6a 00                	push   $0x0
 152:	6a ff                	push   $0xffffffff
 154:	6a 00                	push   $0x0
 156:	6a 00                	push   $0x0
 158:	6a 01                	push   $0x1
 15a:	e8 fc ff ff ff       	call   15b <i86_gdt_initialize+0x4a>
 15f:	83 c4 20             	add    $0x20,%esp
		I86_GDT_GRAN_32BIT | 
		I86_GDT_GRAN_LIMITHI
		);

	// set default data descriptor
	gdt_set_descriptor (2,0,0xffffffff,
 162:	83 ec 04             	sub    $0x4,%esp
 165:	68 cf 00 00 00       	push   $0xcf
 16a:	68 92 00 00 00       	push   $0x92
 16f:	6a 00                	push   $0x0
 171:	6a ff                	push   $0xffffffff
 173:	6a 00                	push   $0x0
 175:	6a 00                	push   $0x0
 177:	6a 02                	push   $0x2
 179:	e8 fc ff ff ff       	call   17a <i86_gdt_initialize+0x69>
 17e:	83 c4 20             	add    $0x20,%esp
		I86_GDT_GRAN_32BIT | 
		I86_GDT_GRAN_LIMITHI
		);

	// install gdtr
	gdt_flush ((uint32_t)&_gdtr);
 181:	b8 00 00 00 00       	mov    $0x0,%eax
 186:	83 ec 0c             	sub    $0xc,%esp
 189:	50                   	push   %eax
 18a:	e8 fc ff ff ff       	call   18b <i86_gdt_initialize+0x7a>
 18f:	83 c4 10             	add    $0x10,%esp

	return 0;
 192:	b8 00 00 00 00       	mov    $0x0,%eax
 197:	c9                   	leave  
 198:	c3                   	ret    

getch.o:     file format elf32-i386


Disassembly of section .text:

00000000 <getch>:
#include <lib/stdio.h>

KEYCODE	getch () {
   0:	55                   	push   %ebp
   1:	89 e5                	mov    %esp,%ebp
   3:	83 ec 18             	sub    $0x18,%esp

	KEYCODE key = KEY_UNKNOWN;
   6:	c7 45 f4 12 40 00 00 	movl   $0x4012,-0xc(%ebp)

	//! wait for a keypress
	while (key==KEY_UNKNOWN)
   d:	eb 08                	jmp    17 <getch+0x17>
		key = keyboard_get_last_key ();
   f:	e8 fc ff ff ff       	call   10 <getch+0x10>
  14:	89 45 f4             	mov    %eax,-0xc(%ebp)
KEYCODE	getch () {

	KEYCODE key = KEY_UNKNOWN;

	//! wait for a keypress
	while (key==KEY_UNKNOWN)
  17:	81 7d f4 12 40 00 00 	cmpl   $0x4012,-0xc(%ebp)
  1e:	74 ef                	je     f <getch+0xf>
		key = keyboard_get_last_key ();

	//! discard last keypress (we handled it) and return
	keyboard_discard_last_key ();
  20:	e8 fc ff ff ff       	call   21 <getch+0x21>

	return key;
  25:	8b 45 f4             	mov    -0xc(%ebp),%eax
  28:	c9                   	leave  
  29:	c3                   	ret    

getCursor.o:     file format elf32-i386


Disassembly of section .text:

00000000 <getCursor>:
#include <lib/stdio.h>
#include <monitor/monitor.h>

void getCursor(uint32_t* x, uint32_t* y){
   0:	55                   	push   %ebp
   1:	89 e5                	mov    %esp,%ebp
   3:	83 ec 08             	sub    $0x8,%esp
	monitor_getCursor(x, y);
   6:	83 ec 08             	sub    $0x8,%esp
   9:	ff 75 0c             	pushl  0xc(%ebp)
   c:	ff 75 08             	pushl  0x8(%ebp)
   f:	e8 fc ff ff ff       	call   10 <getCursor+0x10>
  14:	83 c4 10             	add    $0x10,%esp
  17:	90                   	nop
  18:	c9                   	leave  
  19:	c3                   	ret    

hal.o:     file format elf32-i386


Disassembly of section .text:

00000000 <hal_initialize>:
#include <hal/pic.h>
#include <hal/pit.h>

#include <lib/stdio.h>

int hal_initialize(){
   0:	55                   	push   %ebp
   1:	89 e5                	mov    %esp,%ebp
   3:	83 ec 08             	sub    $0x8,%esp
	i86_cpu_initialize();
   6:	e8 fc ff ff ff       	call   7 <hal_initialize+0x7>
	i86_pic_initialize(0x20, 0x28);
   b:	83 ec 08             	sub    $0x8,%esp
   e:	6a 28                	push   $0x28
  10:	6a 20                	push   $0x20
  12:	e8 fc ff ff ff       	call   13 <hal_initialize+0x13>
  17:	83 c4 10             	add    $0x10,%esp
	i86_pit_initialize();
  1a:	e8 fc ff ff ff       	call   1b <hal_initialize+0x1b>
	i86_pit_start_counter (100,I86_PIT_OCW_COUNTER_0, I86_PIT_OCW_MODE_SQUAREWAVEGEN);
  1f:	83 ec 04             	sub    $0x4,%esp
  22:	6a 06                	push   $0x6
  24:	6a 00                	push   $0x0
  26:	6a 64                	push   $0x64
  28:	e8 fc ff ff ff       	call   29 <hal_initialize+0x29>
  2d:	83 c4 10             	add    $0x10,%esp

	enable();
  30:	e8 fc ff ff ff       	call   31 <hal_initialize+0x31>

	return 0;
  35:	b8 00 00 00 00       	mov    $0x0,%eax
}
  3a:	c9                   	leave  
  3b:	c3                   	ret    

0000003c <hal_shutdown>:

int hal_shutdown(){
  3c:	55                   	push   %ebp
  3d:	89 e5                	mov    %esp,%ebp
  3f:	83 ec 08             	sub    $0x8,%esp
	i86_cpu_shutdown();
  42:	e8 fc ff ff ff       	call   43 <hal_shutdown+0x7>
	return 0;
  47:	b8 00 00 00 00       	mov    $0x0,%eax
}
  4c:	c9                   	leave  
  4d:	c3                   	ret    

0000004e <interruptdone>:

void interruptdone(uint32_t intno){
  4e:	55                   	push   %ebp
  4f:	89 e5                	mov    %esp,%ebp
  51:	83 ec 08             	sub    $0x8,%esp
	// insure its a valid hardware irq
	if (intno > 16)
  54:	83 7d 08 10          	cmpl   $0x10,0x8(%ebp)
  58:	77 26                	ja     80 <interruptdone+0x32>
		return;

	// test if we need to send end-of-interrupt to second pic
	if (intno >= 8)
  5a:	83 7d 08 07          	cmpl   $0x7,0x8(%ebp)
  5e:	76 0f                	jbe    6f <interruptdone+0x21>
		i86_pic_send_command (I86_PIC_OCW2_MASK_EOI, 1);
  60:	83 ec 08             	sub    $0x8,%esp
  63:	6a 01                	push   $0x1
  65:	6a 20                	push   $0x20
  67:	e8 fc ff ff ff       	call   68 <interruptdone+0x1a>
  6c:	83 c4 10             	add    $0x10,%esp

	// always send end-of-interrupt to primary pic
	i86_pic_send_command (I86_PIC_OCW2_MASK_EOI, 0);
  6f:	83 ec 08             	sub    $0x8,%esp
  72:	6a 00                	push   $0x0
  74:	6a 20                	push   $0x20
  76:	e8 fc ff ff ff       	call   77 <interruptdone+0x29>
  7b:	83 c4 10             	add    $0x10,%esp
  7e:	eb 01                	jmp    81 <interruptdone+0x33>
}

void interruptdone(uint32_t intno){
	// insure its a valid hardware irq
	if (intno > 16)
		return;
  80:	90                   	nop
	if (intno >= 8)
		i86_pic_send_command (I86_PIC_OCW2_MASK_EOI, 1);

	// always send end-of-interrupt to primary pic
	i86_pic_send_command (I86_PIC_OCW2_MASK_EOI, 0);
}
  81:	c9                   	leave  
  82:	c3                   	ret    

00000083 <sound>:

void sound(uint32_t frequency){
  83:	55                   	push   %ebp
  84:	89 e5                	mov    %esp,%ebp
  86:	83 ec 08             	sub    $0x8,%esp
	outportb (0x61, 3 | (unsigned char)(frequency<<2) );
  89:	8b 45 08             	mov    0x8(%ebp),%eax
  8c:	c1 e0 02             	shl    $0x2,%eax
  8f:	83 c8 03             	or     $0x3,%eax
  92:	0f b6 c0             	movzbl %al,%eax
  95:	83 ec 08             	sub    $0x8,%esp
  98:	50                   	push   %eax
  99:	6a 61                	push   $0x61
  9b:	e8 fc ff ff ff       	call   9c <sound+0x19>
  a0:	83 c4 10             	add    $0x10,%esp
}
  a3:	90                   	nop
  a4:	c9                   	leave  
  a5:	c3                   	ret    

000000a6 <inportb>:


uint8_t inportb(uint16_t port){
  a6:	55                   	push   %ebp
  a7:	89 e5                	mov    %esp,%ebp
  a9:	83 ec 14             	sub    $0x14,%esp
  ac:	8b 45 08             	mov    0x8(%ebp),%eax
  af:	66 89 45 ec          	mov    %ax,-0x14(%ebp)
	uint8_t ret;
    asm volatile ( "in %1, %0"
  b3:	0f b7 45 ec          	movzwl -0x14(%ebp),%eax
  b7:	89 c2                	mov    %eax,%edx
  b9:	ec                   	in     (%dx),%al
  ba:	88 45 ff             	mov    %al,-0x1(%ebp)
                   : "=a"(ret)
                   : "Nd"(port) );
    return ret;
  bd:	0f b6 45 ff          	movzbl -0x1(%ebp),%eax
}
  c1:	c9                   	leave  
  c2:	c3                   	ret    

000000c3 <outportb>:

void outportb(uint16_t port, uint8_t value){
  c3:	55                   	push   %ebp
  c4:	89 e5                	mov    %esp,%ebp
  c6:	83 ec 08             	sub    $0x8,%esp
  c9:	8b 55 08             	mov    0x8(%ebp),%edx
  cc:	8b 45 0c             	mov    0xc(%ebp),%eax
  cf:	66 89 55 fc          	mov    %dx,-0x4(%ebp)
  d3:	88 45 f8             	mov    %al,-0x8(%ebp)
	asm volatile ( "out %0, %1" : : "a"(value), "Nd"(port) );
  d6:	0f b6 45 f8          	movzbl -0x8(%ebp),%eax
  da:	0f b7 55 fc          	movzwl -0x4(%ebp),%edx
  de:	ee                   	out    %al,(%dx)
}
  df:	90                   	nop
  e0:	c9                   	leave  
  e1:	c3                   	ret    

000000e2 <inportw>:

uint16_t inportw(uint16_t port){
  e2:	55                   	push   %ebp
  e3:	89 e5                	mov    %esp,%ebp
  e5:	83 ec 14             	sub    $0x14,%esp
  e8:	8b 45 08             	mov    0x8(%ebp),%eax
  eb:	66 89 45 ec          	mov    %ax,-0x14(%ebp)
	uint16_t ret;
    asm volatile ( "in %1, %0"
  ef:	0f b7 45 ec          	movzwl -0x14(%ebp),%eax
  f3:	89 c2                	mov    %eax,%edx
  f5:	66 ed                	in     (%dx),%ax
  f7:	66 89 45 fe          	mov    %ax,-0x2(%ebp)
                   : "=a"(ret)
                   : "Nd"(port) );
    return ret;
  fb:	0f b7 45 fe          	movzwl -0x2(%ebp),%eax
}
  ff:	c9                   	leave  
 100:	c3                   	ret    

00000101 <outportw>:

void outportw(uint16_t port, uint16_t value){
 101:	55                   	push   %ebp
 102:	89 e5                	mov    %esp,%ebp
 104:	83 ec 08             	sub    $0x8,%esp
 107:	8b 55 08             	mov    0x8(%ebp),%edx
 10a:	8b 45 0c             	mov    0xc(%ebp),%eax
 10d:	66 89 55 fc          	mov    %dx,-0x4(%ebp)
 111:	66 89 45 f8          	mov    %ax,-0x8(%ebp)
	asm volatile ( "out %0, %1" : : "a"(value), "Nd"(port) );
 115:	0f b7 45 f8          	movzwl -0x8(%ebp),%eax
 119:	0f b7 55 fc          	movzwl -0x4(%ebp),%edx
 11d:	66 ef                	out    %ax,(%dx)
}
 11f:	90                   	nop
 120:	c9                   	leave  
 121:	c3                   	ret    

00000122 <inportl>:

uint32_t inportl(uint16_t port){
 122:	55                   	push   %ebp
 123:	89 e5                	mov    %esp,%ebp
 125:	83 ec 14             	sub    $0x14,%esp
 128:	8b 45 08             	mov    0x8(%ebp),%eax
 12b:	66 89 45 ec          	mov    %ax,-0x14(%ebp)
	uint32_t ret;
    asm volatile ( "in %1, %0"
 12f:	0f b7 45 ec          	movzwl -0x14(%ebp),%eax
 133:	89 c2                	mov    %eax,%edx
 135:	ed                   	in     (%dx),%eax
 136:	89 45 fc             	mov    %eax,-0x4(%ebp)
                   : "=a"(ret)
                   : "Nd"(port) );
    return ret;
 139:	8b 45 fc             	mov    -0x4(%ebp),%eax
}
 13c:	c9                   	leave  
 13d:	c3                   	ret    

0000013e <outportl>:

void outportl(uint16_t port, uint32_t value){
 13e:	55                   	push   %ebp
 13f:	89 e5                	mov    %esp,%ebp
 141:	83 ec 04             	sub    $0x4,%esp
 144:	8b 45 08             	mov    0x8(%ebp),%eax
 147:	66 89 45 fc          	mov    %ax,-0x4(%ebp)
	asm volatile ( "out %0, %1" : : "a"(value), "Nd"(port) );
 14b:	8b 45 0c             	mov    0xc(%ebp),%eax
 14e:	0f b7 55 fc          	movzwl -0x4(%ebp),%edx
 152:	ef                   	out    %eax,(%dx)
}
 153:	90                   	nop
 154:	c9                   	leave  
 155:	c3                   	ret    

00000156 <enable>:

void enable(){
 156:	55                   	push   %ebp
 157:	89 e5                	mov    %esp,%ebp
	asm volatile("sti");
 159:	fb                   	sti    
}
 15a:	90                   	nop
 15b:	5d                   	pop    %ebp
 15c:	c3                   	ret    

0000015d <disable>:

void disable(){
 15d:	55                   	push   %ebp
 15e:	89 e5                	mov    %esp,%ebp
	asm volatile("cli");
 160:	fa                   	cli    
}
 161:	90                   	nop
 162:	5d                   	pop    %ebp
 163:	c3                   	ret    

00000164 <setvect>:

void setvect(int intno, irq_vect vect){
 164:	55                   	push   %ebp
 165:	89 e5                	mov    %esp,%ebp
 167:	83 ec 08             	sub    $0x8,%esp
	i86_install_ir (intno, I86_IDT_DESC_PRESENT | I86_IDT_DESC_BIT32,
 16a:	8b 45 08             	mov    0x8(%ebp),%eax
 16d:	ff 75 0c             	pushl  0xc(%ebp)
 170:	6a 08                	push   $0x8
 172:	68 8e 00 00 00       	push   $0x8e
 177:	50                   	push   %eax
 178:	e8 fc ff ff ff       	call   179 <setvect+0x15>
 17d:	83 c4 10             	add    $0x10,%esp
		0x8, vect);
}
 180:	90                   	nop
 181:	c9                   	leave  
 182:	c3                   	ret    

00000183 <getvect>:

void (*getvect(int intno))(){
 183:	55                   	push   %ebp
 184:	89 e5                	mov    %esp,%ebp
 186:	83 ec 18             	sub    $0x18,%esp
	// get the descriptor from the idt
	idt_descriptor* desc = i86_get_ir (intno);
 189:	8b 45 08             	mov    0x8(%ebp),%eax
 18c:	83 ec 0c             	sub    $0xc,%esp
 18f:	50                   	push   %eax
 190:	e8 fc ff ff ff       	call   191 <getvect+0xe>
 195:	83 c4 10             	add    $0x10,%esp
 198:	89 45 f4             	mov    %eax,-0xc(%ebp)
	if (!desc)
 19b:	83 7d f4 00          	cmpl   $0x0,-0xc(%ebp)
 19f:	75 07                	jne    1a8 <getvect+0x25>
		return 0;
 1a1:	b8 00 00 00 00       	mov    $0x0,%eax
 1a6:	eb 24                	jmp    1cc <getvect+0x49>

	// get address of interrupt handler
	uint32_t addr = desc->baseLo | (desc->baseHi << 16);
 1a8:	8b 45 f4             	mov    -0xc(%ebp),%eax
 1ab:	0f b7 00             	movzwl (%eax),%eax
 1ae:	0f b7 d0             	movzwl %ax,%edx
 1b1:	8b 45 f4             	mov    -0xc(%ebp),%eax
 1b4:	0f b7 40 06          	movzwl 0x6(%eax),%eax
 1b8:	0f b7 c0             	movzwl %ax,%eax
 1bb:	c1 e0 10             	shl    $0x10,%eax
 1be:	09 d0                	or     %edx,%eax
 1c0:	89 45 f0             	mov    %eax,-0x10(%ebp)

	// return interrupt handler
	I86_IRQ_HANDLER irq = (I86_IRQ_HANDLER)addr;
 1c3:	8b 45 f0             	mov    -0x10(%ebp),%eax
 1c6:	89 45 ec             	mov    %eax,-0x14(%ebp)
	return irq;
 1c9:	8b 45 ec             	mov    -0x14(%ebp),%eax
}
 1cc:	c9                   	leave  
 1cd:	c3                   	ret    

000001ce <get_cpu_vendor>:

const char* get_cpu_vendor(){
 1ce:	55                   	push   %ebp
 1cf:	89 e5                	mov    %esp,%ebp
 1d1:	83 ec 08             	sub    $0x8,%esp
	return i86_cpu_get_vendor();
 1d4:	e8 fc ff ff ff       	call   1d5 <get_cpu_vendor+0x7>
}
 1d9:	c9                   	leave  
 1da:	c3                   	ret    

000001db <get_tick_count>:

int get_tick_count(){
 1db:	55                   	push   %ebp
 1dc:	89 e5                	mov    %esp,%ebp
 1de:	83 ec 08             	sub    $0x8,%esp
	return i86_pit_get_tick_count();
 1e1:	e8 fc ff ff ff       	call   1e2 <get_tick_count+0x7>
 1e6:	c9                   	leave  
 1e7:	c3                   	ret    

idt.o:     file format elf32-i386


Disassembly of section .text:

00000000 <i86_default_handler>:
idt_descriptor _idt[I86_MAX_INTERRUPTS];
idtr _idtr;

static void i86_default_handler();

static void i86_default_handler(){
   0:	55                   	push   %ebp
   1:	89 e5                	mov    %esp,%ebp
   3:	83 ec 08             	sub    $0x8,%esp
	puts("[I86 HAL] i86 default handler: Unhandled exception");
   6:	83 ec 0c             	sub    $0xc,%esp
   9:	68 00 00 00 00       	push   $0x0
   e:	e8 fc ff ff ff       	call   f <i86_default_handler+0xf>
  13:	83 c4 10             	add    $0x10,%esp

	for(;;);
  16:	eb fe                	jmp    16 <i86_default_handler+0x16>

00000018 <i86_get_ir>:
}

idt_descriptor* i86_get_ir(uint32_t i){
  18:	55                   	push   %ebp
  19:	89 e5                	mov    %esp,%ebp
	if(i > I86_MAX_INTERRUPTS)
  1b:	81 7d 08 00 01 00 00 	cmpl   $0x100,0x8(%ebp)
  22:	76 07                	jbe    2b <i86_get_ir+0x13>
		return 0;
  24:	b8 00 00 00 00       	mov    $0x0,%eax
  29:	eb 0b                	jmp    36 <i86_get_ir+0x1e>

	return &_idt[i];
  2b:	8b 45 08             	mov    0x8(%ebp),%eax
  2e:	c1 e0 03             	shl    $0x3,%eax
  31:	05 00 00 00 00       	add    $0x0,%eax
}
  36:	5d                   	pop    %ebp
  37:	c3                   	ret    

00000038 <i86_install_ir>:

int i86_install_ir(uint32_t i, uint16_t flags, uint16_t sel, I86_IRQ_HANDLER irq){
  38:	55                   	push   %ebp
  39:	89 e5                	mov    %esp,%ebp
  3b:	83 ec 18             	sub    $0x18,%esp
  3e:	8b 55 0c             	mov    0xc(%ebp),%edx
  41:	8b 45 10             	mov    0x10(%ebp),%eax
  44:	66 89 55 ec          	mov    %dx,-0x14(%ebp)
  48:	66 89 45 e8          	mov    %ax,-0x18(%ebp)

	if(i > I86_MAX_INTERRUPTS)
  4c:	81 7d 08 00 01 00 00 	cmpl   $0x100,0x8(%ebp)
  53:	76 07                	jbe    5c <i86_install_ir+0x24>
		return 0;
  55:	b8 00 00 00 00       	mov    $0x0,%eax
  5a:	eb 70                	jmp    cc <i86_install_ir+0x94>

	if(!irq)
  5c:	83 7d 14 00          	cmpl   $0x0,0x14(%ebp)
  60:	75 07                	jne    69 <i86_install_ir+0x31>
		return 0;
  62:	b8 00 00 00 00       	mov    $0x0,%eax
  67:	eb 63                	jmp    cc <i86_install_ir+0x94>

	uint64_t uiBase = (uint64_t)&(*irq);
  69:	8b 45 14             	mov    0x14(%ebp),%eax
  6c:	99                   	cltd   
  6d:	89 45 f8             	mov    %eax,-0x8(%ebp)
  70:	89 55 fc             	mov    %edx,-0x4(%ebp)

	_idt[i].baseLo		=	(uint16_t)(uiBase & 0xffff);
  73:	8b 45 f8             	mov    -0x8(%ebp),%eax
  76:	89 c2                	mov    %eax,%edx
  78:	8b 45 08             	mov    0x8(%ebp),%eax
  7b:	66 89 14 c5 00 00 00 	mov    %dx,0x0(,%eax,8)
  82:	00 
	_idt[i].baseHi		=	(uint16_t)((uiBase >> 16) & 0xffff);
  83:	8b 45 f8             	mov    -0x8(%ebp),%eax
  86:	8b 55 fc             	mov    -0x4(%ebp),%edx
  89:	0f ac d0 10          	shrd   $0x10,%edx,%eax
  8d:	c1 ea 10             	shr    $0x10,%edx
  90:	89 c2                	mov    %eax,%edx
  92:	8b 45 08             	mov    0x8(%ebp),%eax
  95:	66 89 14 c5 06 00 00 	mov    %dx,0x6(,%eax,8)
  9c:	00 
	_idt[i].reserved	=	0;
  9d:	8b 45 08             	mov    0x8(%ebp),%eax
  a0:	c6 04 c5 04 00 00 00 	movb   $0x0,0x4(,%eax,8)
  a7:	00 
	_idt[i].flags		=	(uint8_t)(flags);
  a8:	0f b7 45 ec          	movzwl -0x14(%ebp),%eax
  ac:	89 c2                	mov    %eax,%edx
  ae:	8b 45 08             	mov    0x8(%ebp),%eax
  b1:	88 14 c5 05 00 00 00 	mov    %dl,0x5(,%eax,8)
	_idt[i].sel			=	sel;
  b8:	8b 45 08             	mov    0x8(%ebp),%eax
  bb:	0f b7 55 e8          	movzwl -0x18(%ebp),%edx
  bf:	66 89 14 c5 02 00 00 	mov    %dx,0x2(,%eax,8)
  c6:	00 

	return 0;
  c7:	b8 00 00 00 00       	mov    $0x0,%eax
}
  cc:	c9                   	leave  
  cd:	c3                   	ret    

000000ce <i86_idt_initialize>:

int i86_idt_initialize (uint16_t codeSel) {
  ce:	55                   	push   %ebp
  cf:	89 e5                	mov    %esp,%ebp
  d1:	83 ec 28             	sub    $0x28,%esp
  d4:	8b 45 08             	mov    0x8(%ebp),%eax
  d7:	66 89 45 e4          	mov    %ax,-0x1c(%ebp)

	// set up idtr for processor
	_idtr.limit = sizeof (idt_descriptor) * I86_MAX_INTERRUPTS -1;
  db:	66 c7 05 00 00 00 00 	movw   $0x7ff,0x0
  e2:	ff 07 
	_idtr.base	= (uint32_t)&_idt[0];
  e4:	b8 00 00 00 00       	mov    $0x0,%eax
  e9:	a3 02 00 00 00       	mov    %eax,0x2

	// null out the idt
	memset ((void*)&_idt[0], 0, sizeof (idt_descriptor) * I86_MAX_INTERRUPTS-1);
  ee:	83 ec 04             	sub    $0x4,%esp
  f1:	68 ff 07 00 00       	push   $0x7ff
  f6:	6a 00                	push   $0x0
  f8:	68 00 00 00 00       	push   $0x0
  fd:	e8 fc ff ff ff       	call   fe <i86_idt_initialize+0x30>
 102:	83 c4 10             	add    $0x10,%esp

	// register default handlers
	for (int i=0; i<I86_MAX_INTERRUPTS; i++)
 105:	c7 45 f4 00 00 00 00 	movl   $0x0,-0xc(%ebp)
 10c:	eb 1f                	jmp    12d <i86_idt_initialize+0x5f>
		i86_install_ir (
 10e:	0f b7 55 e4          	movzwl -0x1c(%ebp),%edx
 112:	8b 45 f4             	mov    -0xc(%ebp),%eax
 115:	68 00 00 00 00       	push   $0x0
 11a:	52                   	push   %edx
 11b:	68 8e 00 00 00       	push   $0x8e
 120:	50                   	push   %eax
 121:	e8 fc ff ff ff       	call   122 <i86_idt_initialize+0x54>
 126:	83 c4 10             	add    $0x10,%esp

	// null out the idt
	memset ((void*)&_idt[0], 0, sizeof (idt_descriptor) * I86_MAX_INTERRUPTS-1);

	// register default handlers
	for (int i=0; i<I86_MAX_INTERRUPTS; i++)
 129:	83 45 f4 01          	addl   $0x1,-0xc(%ebp)
 12d:	81 7d f4 ff 00 00 00 	cmpl   $0xff,-0xc(%ebp)
 134:	7e d8                	jle    10e <i86_idt_initialize+0x40>
			codeSel, 

			(I86_IRQ_HANDLER)i86_default_handler);

	// install our idt
	idt_flush ((uint32_t) &_idtr);
 136:	b8 00 00 00 00       	mov    $0x0,%eax
 13b:	83 ec 0c             	sub    $0xc,%esp
 13e:	50                   	push   %eax
 13f:	e8 fc ff ff ff       	call   140 <i86_idt_initialize+0x72>
 144:	83 c4 10             	add    $0x10,%esp

	return 0;
 147:	b8 00 00 00 00       	mov    $0x0,%eax
 14c:	c9                   	leave  
 14d:	c3                   	ret    

int32.o:     file format elf32-i386


Disassembly of section .text:

00000000 <_int32>:
   0:	fa                   	cli    
   1:	60                   	pusha  
   2:	be 19 00 00 00       	mov    $0x19,%esi
   7:	bf 00 7c 00 00       	mov    $0x7c00,%edi
   c:	b9 33 01 00 00       	mov    $0x133,%ecx
  11:	fc                   	cld    
  12:	f3 a4                	rep movsb %ds:(%esi),%es:(%edi)
  14:	e9 fc 7b 00 00       	jmp    7c15 <int32_end+0x7ac9>

00000019 <reloc>:
  19:	89 25 ef 7c 00 00    	mov    %esp,0x7cef
  1f:	0f 01 0d f3 7c 00 00 	sidtl  0x7cf3
  26:	0f 01 05 f9 7c 00 00 	sgdtl  0x7cf9
  2d:	0f 01 15 2d 7d 00 00 	lgdtl  0x7d2d
  34:	8d 74 24 24          	lea    0x24(%esp),%esi
  38:	ad                   	lods   %ds:(%esi),%eax
  39:	a2 6f 7c 00 00       	mov    %al,0x7c6f
  3e:	8b 36                	mov    (%esi),%esi
  40:	bf e6 7b 00 00       	mov    $0x7be6,%edi
  45:	b9 1a 00 00 00       	mov    $0x1a,%ecx
  4a:	89 fc                	mov    %edi,%esp
  4c:	f3 a4                	rep movsb %ds:(%esi),%es:(%edi)
  4e:	66 ea 3b 7c 18 00    	ljmpw  $0x18,$0x7c3b

00000054 <p_mode16>:
  54:	b8 20 00 8e d8       	mov    $0xd88e0020,%eax
  59:	8e c0                	mov    %eax,%es
  5b:	8e e0                	mov    %eax,%fs
  5d:	8e e8                	mov    %eax,%gs
  5f:	8e d0                	mov    %eax,%ss
  61:	0f 20 c0             	mov    %cr0,%eax
  64:	24 fe                	and    $0xfe,%al
  66:	0f 22 c0             	mov    %eax,%cr0
  69:	ea 55 7c 00 00 31 c0 	ljmp   $0xc031,$0x7c55

0000006e <r_mode16>:
  6e:	31 c0                	xor    %eax,%eax
  70:	8e d8                	mov    %eax,%ds
  72:	8e d0                	mov    %eax,%ss
  74:	0f 01 1e             	lidtl  (%esi)
  77:	ff                   	(bad)  
  78:	7c bb                	jl     35 <reloc+0x1c>
  7a:	70 08                	jo     84 <r_mode16+0x16>
  7c:	e8 68 00 61 0f       	call   f6100e9 <int32_end+0xf60ff9d>
  81:	a9 0f a1 07 1f       	test   $0x1f07a10f,%eax
  86:	fb                   	sti    
  87:	cd 00                	int    $0x0

00000088 <ib>:
  88:	00 fa                	add    %bh,%dl
  8a:	31 e4                	xor    %esp,%esp
  8c:	8e d4                	mov    %esp,%ss
  8e:	bc 00 7c 9c 1e       	mov    $0x1e9c7c00,%esp
  93:	06                   	push   %es
  94:	0f a0                	push   %fs
  96:	0f a8                	push   %gs
  98:	60                   	pusha  
  99:	bb 28 20 e8 48       	mov    $0x48e82028,%ebx
  9e:	00 0f                	add    %cl,(%edi)
  a0:	20 c0                	and    %al,%al
  a2:	66 40                	inc    %ax
  a4:	0f 22 c0             	mov    %eax,%cr0
  a7:	66 ea 96 7c 00 00    	ljmpw  $0x0,$0x7c96
  ad:	08 00                	or     %al,(%eax)

000000af <p_mode32>:
  af:	66 b8 10 00          	mov    $0x10,%ax
  b3:	8e d8                	mov    %eax,%ds
  b5:	8e c0                	mov    %eax,%es
  b7:	8e e0                	mov    %eax,%fs
  b9:	8e e8                	mov    %eax,%gs
  bb:	8e d0                	mov    %eax,%ss
  bd:	0f 01 15 f9 7c 00 00 	lgdtl  0x7cf9
  c4:	0f 01 1d f3 7c 00 00 	lidtl  0x7cf3
  cb:	8b 25 ef 7c 00 00    	mov    0x7cef,%esp
  d1:	be e6 7b 00 00       	mov    $0x7be6,%esi
  d6:	8d 7c 24 28          	lea    0x28(%esp),%edi
  da:	8b 3f                	mov    (%edi),%edi
  dc:	b9 1a 00 00 00       	mov    $0x1a,%ecx
  e1:	fc                   	cld    
  e2:	f3 a4                	rep movsb %ds:(%esi),%es:(%edi)
  e4:	61                   	popa   
  e5:	fb                   	sti    
  e6:	c3                   	ret    

000000e7 <resetpic>:
  e7:	66 50                	push   %ax
  e9:	b0 11                	mov    $0x11,%al
  eb:	e6 20                	out    %al,$0x20
  ed:	e6 a0                	out    %al,$0xa0
  ef:	88 f8                	mov    %bh,%al
  f1:	e6 21                	out    %al,$0x21
  f3:	88 d8                	mov    %bl,%al
  f5:	e6 a1                	out    %al,$0xa1
  f7:	b0 04                	mov    $0x4,%al
  f9:	e6 21                	out    %al,$0x21
  fb:	d0 e8                	shr    %al
  fd:	e6 a1                	out    %al,$0xa1
  ff:	d0 e8                	shr    %al
 101:	e6 21                	out    %al,$0x21
 103:	e6 a1                	out    %al,$0xa1
 105:	66 58                	pop    %ax
 107:	c3                   	ret    

00000108 <stack32_ptr>:
 108:	00 00                	add    %al,(%eax)
	...

0000010c <idt32_ptr>:
 10c:	00 00                	add    %al,(%eax)
 10e:	00 00                	add    %al,(%eax)
	...

00000112 <gdt32_ptr>:
 112:	00 00                	add    %al,(%eax)
 114:	00 00                	add    %al,(%eax)
	...

00000118 <idt16_ptr>:
 118:	ff 03                	incl   (%ebx)
 11a:	00 00                	add    %al,(%eax)
	...

0000011e <gdt16_base>:
	...

00000126 <gdt16_base.code32>:
 126:	ff                   	(bad)  
 127:	ff 00                	incl   (%eax)
 129:	00 00                	add    %al,(%eax)
 12b:	9a cf 00 ff ff 00 00 	lcall  $0x0,$0xffff00cf

0000012e <gdt16_base.data32>:
 12e:	ff                   	(bad)  
 12f:	ff 00                	incl   (%eax)
 131:	00 00                	add    %al,(%eax)
 133:	92                   	xchg   %eax,%edx
 134:	cf                   	iret   
	...

00000136 <gdt16_base.code16>:
 136:	ff                   	(bad)  
 137:	ff 00                	incl   (%eax)
 139:	00 00                	add    %al,(%eax)
 13b:	9a 0f 00 ff ff 00 00 	lcall  $0x0,$0xffff000f

0000013e <gdt16_base.data16>:
 13e:	ff                   	(bad)  
 13f:	ff 00                	incl   (%eax)
 141:	00 00                	add    %al,(%eax)
 143:	92                   	xchg   %eax,%edx
 144:	0f 00 27             	verr   (%edi)

00000146 <gdt16_ptr>:
 146:	27                   	daa    
 147:	00 1e                	add    %bl,(%esi)
 149:	01 00                	add    %eax,(%eax)
	...

itoa.o:     file format elf32-i386


Disassembly of section .text:

00000000 <itoa>:
#include <lib/string.h>

char bchars[] = {'0','1','2','3','4','5','6','7','8','9','A','B','C','D','E','F'};

void itoa(uint32_t i, uint32_t base, char* buf){
   0:	55                   	push   %ebp
   1:	89 e5                	mov    %esp,%ebp
   3:	83 ec 30             	sub    $0x30,%esp
	int pos = 0;
   6:	c7 45 fc 00 00 00 00 	movl   $0x0,-0x4(%ebp)
	int opos = 0;
   d:	c7 45 f8 00 00 00 00 	movl   $0x0,-0x8(%ebp)
	int top = 0;
  14:	c7 45 f4 00 00 00 00 	movl   $0x0,-0xc(%ebp)

	char tbuf[32] = {0};
  1b:	b9 00 00 00 00       	mov    $0x0,%ecx
  20:	b8 20 00 00 00       	mov    $0x20,%eax
  25:	83 e0 fc             	and    $0xfffffffc,%eax
  28:	89 c2                	mov    %eax,%edx
  2a:	b8 00 00 00 00       	mov    $0x0,%eax
  2f:	89 4c 05 d4          	mov    %ecx,-0x2c(%ebp,%eax,1)
  33:	83 c0 04             	add    $0x4,%eax
  36:	39 d0                	cmp    %edx,%eax
  38:	72 f5                	jb     2f <itoa+0x2f>

	// Sanity check (we do only handle base up to 16)
	if(i == 0 || base > 16){
  3a:	83 7d 08 00          	cmpl   $0x0,0x8(%ebp)
  3e:	74 06                	je     46 <itoa+0x46>
  40:	83 7d 0c 10          	cmpl   $0x10,0xc(%ebp)
  44:	76 41                	jbe    87 <itoa+0x87>
		buf[0] = '0';
  46:	8b 45 10             	mov    0x10(%ebp),%eax
  49:	c6 00 30             	movb   $0x30,(%eax)
		buf[1] = '\0';
  4c:	8b 45 10             	mov    0x10(%ebp),%eax
  4f:	83 c0 01             	add    $0x1,%eax
  52:	c6 00 00             	movb   $0x0,(%eax)
  55:	eb 7b                	jmp    d2 <itoa+0xd2>
		return;
	}

	while(i != 0){
		tbuf[pos] = bchars[i % base];
  57:	8b 45 08             	mov    0x8(%ebp),%eax
  5a:	ba 00 00 00 00       	mov    $0x0,%edx
  5f:	f7 75 0c             	divl   0xc(%ebp)
  62:	89 d0                	mov    %edx,%eax
  64:	0f b6 80 00 00 00 00 	movzbl 0x0(%eax),%eax
  6b:	8d 4d d4             	lea    -0x2c(%ebp),%ecx
  6e:	8b 55 fc             	mov    -0x4(%ebp),%edx
  71:	01 ca                	add    %ecx,%edx
  73:	88 02                	mov    %al,(%edx)
		pos++;
  75:	83 45 fc 01          	addl   $0x1,-0x4(%ebp)
		i /= base;
  79:	8b 45 08             	mov    0x8(%ebp),%eax
  7c:	ba 00 00 00 00       	mov    $0x0,%edx
  81:	f7 75 0c             	divl   0xc(%ebp)
  84:	89 45 08             	mov    %eax,0x8(%ebp)
		buf[0] = '0';
		buf[1] = '\0';
		return;
	}

	while(i != 0){
  87:	83 7d 08 00          	cmpl   $0x0,0x8(%ebp)
  8b:	75 ca                	jne    57 <itoa+0x57>
		tbuf[pos] = bchars[i % base];
		pos++;
		i /= base;
	}

	top = pos--;
  8d:	8b 45 fc             	mov    -0x4(%ebp),%eax
  90:	8d 50 ff             	lea    -0x1(%eax),%edx
  93:	89 55 fc             	mov    %edx,-0x4(%ebp)
  96:	89 45 f4             	mov    %eax,-0xc(%ebp)

	for(opos = 0; opos<top; pos--, opos++){
  99:	c7 45 f8 00 00 00 00 	movl   $0x0,-0x8(%ebp)
  a0:	eb 1d                	jmp    bf <itoa+0xbf>
		buf[opos] = tbuf[pos];
  a2:	8b 55 f8             	mov    -0x8(%ebp),%edx
  a5:	8b 45 10             	mov    0x10(%ebp),%eax
  a8:	01 c2                	add    %eax,%edx
  aa:	8d 4d d4             	lea    -0x2c(%ebp),%ecx
  ad:	8b 45 fc             	mov    -0x4(%ebp),%eax
  b0:	01 c8                	add    %ecx,%eax
  b2:	0f b6 00             	movzbl (%eax),%eax
  b5:	88 02                	mov    %al,(%edx)
		i /= base;
	}

	top = pos--;

	for(opos = 0; opos<top; pos--, opos++){
  b7:	83 6d fc 01          	subl   $0x1,-0x4(%ebp)
  bb:	83 45 f8 01          	addl   $0x1,-0x8(%ebp)
  bf:	8b 45 f8             	mov    -0x8(%ebp),%eax
  c2:	3b 45 f4             	cmp    -0xc(%ebp),%eax
  c5:	7c db                	jl     a2 <itoa+0xa2>
		buf[opos] = tbuf[pos];
	}

	buf[opos] = 0;
  c7:	8b 55 f8             	mov    -0x8(%ebp),%edx
  ca:	8b 45 10             	mov    0x10(%ebp),%eax
  cd:	01 d0                	add    %edx,%eax
  cf:	c6 00 00             	movb   $0x0,(%eax)

  d2:	c9                   	leave  
  d3:	c3                   	ret    

itoa_s.o:     file format elf32-i386


Disassembly of section .text:

00000000 <itoa_s>:
#include <lib/string.h>

void itoa_s(int32_t i, uint32_t base, char* buf){
   0:	55                   	push   %ebp
   1:	89 e5                	mov    %esp,%ebp
   3:	83 ec 08             	sub    $0x8,%esp
	if(base > 16)
   6:	83 7d 0c 10          	cmpl   $0x10,0xc(%ebp)
   a:	77 2c                	ja     38 <itoa_s+0x38>
		return;

	if(i < 0){
   c:	83 7d 08 00          	cmpl   $0x0,0x8(%ebp)
  10:	79 0f                	jns    21 <itoa_s+0x21>
		*buf++ = '-';
  12:	8b 45 10             	mov    0x10(%ebp),%eax
  15:	8d 50 01             	lea    0x1(%eax),%edx
  18:	89 55 10             	mov    %edx,0x10(%ebp)
  1b:	c6 00 2d             	movb   $0x2d,(%eax)
		i*=-1;
  1e:	f7 5d 08             	negl   0x8(%ebp)
	}
	itoa(i, base, buf);
  21:	8b 45 08             	mov    0x8(%ebp),%eax
  24:	83 ec 04             	sub    $0x4,%esp
  27:	ff 75 10             	pushl  0x10(%ebp)
  2a:	ff 75 0c             	pushl  0xc(%ebp)
  2d:	50                   	push   %eax
  2e:	e8 fc ff ff ff       	call   2f <itoa_s+0x2f>
  33:	83 c4 10             	add    $0x10,%esp
  36:	eb 01                	jmp    39 <itoa_s+0x39>
#include <lib/string.h>

void itoa_s(int32_t i, uint32_t base, char* buf){
	if(base > 16)
		return;
  38:	90                   	nop
	if(i < 0){
		*buf++ = '-';
		i*=-1;
	}
	itoa(i, base, buf);
  39:	c9                   	leave  
  3a:	c3                   	ret    

kernel_heap.o:     file format elf32-i386


Disassembly of section .text:

00000000 <alignUp>:
int heap_grow(size_t size, uint8_t* heapEnd, int continuous);

void* kmalloc_imp(size_t size, uint32_t alignment, const char* comment);

uint32_t alignUp(uint32_t val, uint32_t alignment)
{
   0:	55                   	push   %ebp
   1:	89 e5                	mov    %esp,%ebp
	// Sanity Check
	if (!alignment)
   3:	83 7d 0c 00          	cmpl   $0x0,0xc(%ebp)
   7:	75 05                	jne    e <alignUp+0xe>
	{
		return val;
   9:	8b 45 08             	mov    0x8(%ebp),%eax
   c:	eb 13                	jmp    21 <alignUp+0x21>
	}

	--alignment;
   e:	83 6d 0c 01          	subl   $0x1,0xc(%ebp)

	return (val + alignment) & ~alignment;
  12:	8b 55 08             	mov    0x8(%ebp),%edx
  15:	8b 45 0c             	mov    0xc(%ebp),%eax
  18:	01 c2                	add    %eax,%edx
  1a:	8b 45 0c             	mov    0xc(%ebp),%eax
  1d:	f7 d0                	not    %eax
  1f:	21 d0                	and    %edx,%eax
}
  21:	5d                   	pop    %ebp
  22:	c3                   	ret    

00000023 <alignDown>:

uint32_t alignDown(uint32_t val, uint32_t alignment)
{
  23:	55                   	push   %ebp
  24:	89 e5                	mov    %esp,%ebp
	// Sanity Check
	if (!alignment)
  26:	83 7d 0c 00          	cmpl   $0x0,0xc(%ebp)
  2a:	75 05                	jne    31 <alignDown+0xe>
	{
		return val;
  2c:	8b 45 08             	mov    0x8(%ebp),%eax
  2f:	eb 08                	jmp    39 <alignDown+0x16>
	}

	return val & ~(alignment - 1);
  31:	8b 45 0c             	mov    0xc(%ebp),%eax
  34:	f7 d8                	neg    %eax
  36:	23 45 08             	and    0x8(%ebp),%eax
}
  39:	5d                   	pop    %ebp
  3a:	c3                   	ret    

0000003b <pmalloc>:

void* pmalloc(size_t size, uint32_t alignment)
{
  3b:	55                   	push   %ebp
  3c:	89 e5                	mov    %esp,%ebp
  3e:	83 ec 10             	sub    $0x10,%esp
	static uint8_t* nextPlacement = (uint8_t*)PLACEMENT_BEGIN;

	size = alignUp(size, 4);
  41:	6a 04                	push   $0x4
  43:	ff 75 08             	pushl  0x8(%ebp)
  46:	e8 fc ff ff ff       	call   47 <pmalloc+0xc>
  4b:	83 c4 08             	add    $0x8,%esp
  4e:	89 45 08             	mov    %eax,0x8(%ebp)

	uint8_t* currPlacement = (uint8_t*)alignUp((uint32_t)nextPlacement, alignment);
  51:	a1 08 00 00 00       	mov    0x8,%eax
  56:	ff 75 0c             	pushl  0xc(%ebp)
  59:	50                   	push   %eax
  5a:	e8 fc ff ff ff       	call   5b <pmalloc+0x20>
  5f:	83 c4 08             	add    $0x8,%esp
  62:	89 45 fc             	mov    %eax,-0x4(%ebp)

	if (((uint32_t)currPlacement + size) > PLACEMENT_END)
  65:	8b 55 fc             	mov    -0x4(%ebp),%edx
  68:	8b 45 08             	mov    0x8(%ebp),%eax
  6b:	01 d0                	add    %edx,%eax
  6d:	3d 00 00 20 d0       	cmp    $0xd0200000,%eax
  72:	76 07                	jbe    7b <pmalloc+0x40>
	{
		return 0;
  74:	b8 00 00 00 00       	mov    $0x0,%eax
  79:	eb 10                	jmp    8b <pmalloc+0x50>
	}

	nextPlacement = currPlacement + size;
  7b:	8b 55 fc             	mov    -0x4(%ebp),%edx
  7e:	8b 45 08             	mov    0x8(%ebp),%eax
  81:	01 d0                	add    %edx,%eax
  83:	a3 08 00 00 00       	mov    %eax,0x8

	return currPlacement;
  88:	8b 45 fc             	mov    -0x4(%ebp),%eax
}
  8b:	c9                   	leave  
  8c:	c3                   	ret    

0000008d <heap_grow>:

int heap_grow(size_t size, uint8_t* heapEnd, int continuous)
{
  8d:	55                   	push   %ebp
  8e:	89 e5                	mov    %esp,%ebp
  90:	53                   	push   %ebx
  91:	83 ec 14             	sub    $0x14,%esp
	printf("\n[heap_grow] Size:%i, Heap End: %#p, Continuous: %i", size, heapEnd, continuous);
  94:	ff 75 10             	pushl  0x10(%ebp)
  97:	ff 75 0c             	pushl  0xc(%ebp)
  9a:	ff 75 08             	pushl  0x8(%ebp)
  9d:	68 04 00 00 00       	push   $0x4
  a2:	e8 fc ff ff ff       	call   a3 <heap_grow+0x16>
  a7:	83 c4 10             	add    $0x10,%esp

	if ((regionCount > 0) && regions[regionCount - 1].reserved && (regionCount >= regionMaxCount))
  aa:	a1 04 00 00 00       	mov    0x4,%eax
  af:	85 c0                	test   %eax,%eax
  b1:	74 4c                	je     ff <heap_grow+0x72>
  b3:	8b 15 00 00 00 00    	mov    0x0,%edx
  b9:	a1 04 00 00 00       	mov    0x4,%eax
  be:	01 c0                	add    %eax,%eax
  c0:	89 c1                	mov    %eax,%ecx
  c2:	c1 e1 04             	shl    $0x4,%ecx
  c5:	29 c1                	sub    %eax,%ecx
  c7:	89 c8                	mov    %ecx,%eax
  c9:	83 e8 1e             	sub    $0x1e,%eax
  cc:	01 d0                	add    %edx,%eax
  ce:	0f b6 40 08          	movzbl 0x8(%eax),%eax
  d2:	84 c0                	test   %al,%al
  d4:	74 29                	je     ff <heap_grow+0x72>
  d6:	8b 15 04 00 00 00    	mov    0x4,%edx
  dc:	a1 08 00 00 00       	mov    0x8,%eax
  e1:	39 c2                	cmp    %eax,%edx
  e3:	72 1a                	jb     ff <heap_grow+0x72>
	{
		printf("\nError1");
  e5:	83 ec 0c             	sub    $0xc,%esp
  e8:	68 38 00 00 00       	push   $0x38
  ed:	e8 fc ff ff ff       	call   ee <heap_grow+0x61>
  f2:	83 c4 10             	add    $0x10,%esp
		return 0;
  f5:	b8 00 00 00 00       	mov    $0x0,%eax
  fa:	e9 13 02 00 00       	jmp    312 <heap_grow+0x285>
	}

	uint32_t offset = 0;
  ff:	c7 45 f4 00 00 00 00 	movl   $0x0,-0xc(%ebp)

	while (offset < size)
 106:	eb 3f                	jmp    147 <heap_grow+0xba>
	{
		physical_addr addr = pmmngr_alloc_block();
 108:	e8 fc ff ff ff       	call   109 <heap_grow+0x7c>
 10d:	89 45 f0             	mov    %eax,-0x10(%ebp)

		printf("\nPhys. Addr: %#0(10)p", addr);
 110:	83 ec 08             	sub    $0x8,%esp
 113:	ff 75 f0             	pushl  -0x10(%ebp)
 116:	68 40 00 00 00       	push   $0x40
 11b:	e8 fc ff ff ff       	call   11c <heap_grow+0x8f>
 120:	83 c4 10             	add    $0x10,%esp

		vmmngr_mapPhysicalAddress(vmmngr_get_directory(), (uint32_t)heapEnd + offset, (uint32_t)addr, I86_PTE_PRESENT | I86_PTE_WRITABLE);
 123:	8b 55 0c             	mov    0xc(%ebp),%edx
 126:	8b 45 f4             	mov    -0xc(%ebp),%eax
 129:	8d 1c 02             	lea    (%edx,%eax,1),%ebx
 12c:	e8 fc ff ff ff       	call   12d <heap_grow+0xa0>
 131:	6a 03                	push   $0x3
 133:	ff 75 f0             	pushl  -0x10(%ebp)
 136:	53                   	push   %ebx
 137:	50                   	push   %eax
 138:	e8 fc ff ff ff       	call   139 <heap_grow+0xac>
 13d:	83 c4 10             	add    $0x10,%esp

		//printf("\nMapping %#p", heapEnd + offset);

		offset += PAGE_SIZE;
 140:	81 45 f4 00 10 00 00 	addl   $0x1000,-0xc(%ebp)
		return 0;
	}

	uint32_t offset = 0;

	while (offset < size)
 147:	8b 45 f4             	mov    -0xc(%ebp),%eax
 14a:	3b 45 08             	cmp    0x8(%ebp),%eax
 14d:	72 b9                	jb     108 <heap_grow+0x7b>
		//printf("\nMapping %#p", heapEnd + offset);

		offset += PAGE_SIZE;
	}

	printf("\nSize: %i", size);
 14f:	83 ec 08             	sub    $0x8,%esp
 152:	ff 75 08             	pushl  0x8(%ebp)
 155:	68 56 00 00 00       	push   $0x56
 15a:	e8 fc ff ff ff       	call   15b <heap_grow+0xce>
 15f:	83 c4 10             	add    $0x10,%esp

	if ((regionCount > 0) && !regions[regionCount - 1].reserved)
 162:	a1 04 00 00 00       	mov    0x4,%eax
 167:	85 c0                	test   %eax,%eax
 169:	74 67                	je     1d2 <heap_grow+0x145>
 16b:	8b 15 00 00 00 00    	mov    0x0,%edx
 171:	a1 04 00 00 00       	mov    0x4,%eax
 176:	01 c0                	add    %eax,%eax
 178:	89 c1                	mov    %eax,%ecx
 17a:	c1 e1 04             	shl    $0x4,%ecx
 17d:	29 c1                	sub    %eax,%ecx
 17f:	89 c8                	mov    %ecx,%eax
 181:	83 e8 1e             	sub    $0x1e,%eax
 184:	01 d0                	add    %edx,%eax
 186:	0f b6 40 08          	movzbl 0x8(%eax),%eax
 18a:	84 c0                	test   %al,%al
 18c:	75 44                	jne    1d2 <heap_grow+0x145>
	{
		regions[regionCount - 1].size += size;
 18e:	8b 15 00 00 00 00    	mov    0x0,%edx
 194:	a1 04 00 00 00       	mov    0x4,%eax
 199:	01 c0                	add    %eax,%eax
 19b:	89 c1                	mov    %eax,%ecx
 19d:	c1 e1 04             	shl    $0x4,%ecx
 1a0:	29 c1                	sub    %eax,%ecx
 1a2:	89 c8                	mov    %ecx,%eax
 1a4:	83 e8 1e             	sub    $0x1e,%eax
 1a7:	01 c2                	add    %eax,%edx
 1a9:	8b 0d 00 00 00 00    	mov    0x0,%ecx
 1af:	a1 04 00 00 00       	mov    0x4,%eax
 1b4:	01 c0                	add    %eax,%eax
 1b6:	89 c3                	mov    %eax,%ebx
 1b8:	c1 e3 04             	shl    $0x4,%ebx
 1bb:	29 c3                	sub    %eax,%ebx
 1bd:	89 d8                	mov    %ebx,%eax
 1bf:	83 e8 1e             	sub    $0x1e,%eax
 1c2:	01 c8                	add    %ecx,%eax
 1c4:	8b 08                	mov    (%eax),%ecx
 1c6:	8b 45 08             	mov    0x8(%ebp),%eax
 1c9:	01 c8                	add    %ecx,%eax
 1cb:	89 02                	mov    %eax,(%edx)
 1cd:	e9 2b 01 00 00       	jmp    2fd <heap_grow+0x270>
	}
	else
	{

		printf("\nSize: %i", size);
 1d2:	83 ec 08             	sub    $0x8,%esp
 1d5:	ff 75 08             	pushl  0x8(%ebp)
 1d8:	68 56 00 00 00       	push   $0x56
 1dd:	e8 fc ff ff ff       	call   1de <heap_grow+0x151>
 1e2:	83 c4 10             	add    $0x10,%esp

		printf("\n Region address: %#p", regions);
 1e5:	a1 00 00 00 00       	mov    0x0,%eax
 1ea:	83 ec 08             	sub    $0x8,%esp
 1ed:	50                   	push   %eax
 1ee:	68 60 00 00 00       	push   $0x60
 1f3:	e8 fc ff ff ff       	call   1f4 <heap_grow+0x167>
 1f8:	83 c4 10             	add    $0x10,%esp

		regions[regionCount].reserved = 0;
 1fb:	8b 15 00 00 00 00    	mov    0x0,%edx
 201:	a1 04 00 00 00       	mov    0x4,%eax
 206:	01 c0                	add    %eax,%eax
 208:	89 c1                	mov    %eax,%ecx
 20a:	c1 e1 04             	shl    $0x4,%ecx
 20d:	29 c1                	sub    %eax,%ecx
 20f:	89 c8                	mov    %ecx,%eax
 211:	01 d0                	add    %edx,%eax
 213:	c6 40 08 00          	movb   $0x0,0x8(%eax)
		regions[regionCount].size = size;
 217:	8b 15 00 00 00 00    	mov    0x0,%edx
 21d:	a1 04 00 00 00       	mov    0x4,%eax
 222:	01 c0                	add    %eax,%eax
 224:	89 c1                	mov    %eax,%ecx
 226:	c1 e1 04             	shl    $0x4,%ecx
 229:	29 c1                	sub    %eax,%ecx
 22b:	89 c8                	mov    %ecx,%eax
 22d:	01 c2                	add    %eax,%edx
 22f:	8b 45 08             	mov    0x8(%ebp),%eax
 232:	89 02                	mov    %eax,(%edx)
		regions[regionCount].number = 0;
 234:	8b 15 00 00 00 00    	mov    0x0,%edx
 23a:	a1 04 00 00 00       	mov    0x4,%eax
 23f:	01 c0                	add    %eax,%eax
 241:	89 c1                	mov    %eax,%ecx
 243:	c1 e1 04             	shl    $0x4,%ecx
 246:	29 c1                	sub    %eax,%ecx
 248:	89 c8                	mov    %ecx,%eax
 24a:	01 d0                	add    %edx,%eax
 24c:	c7 40 04 00 00 00 00 	movl   $0x0,0x4(%eax)

		printf("\nNew Region: %i", regionCount);
 253:	a1 04 00 00 00       	mov    0x4,%eax
 258:	83 ec 08             	sub    $0x8,%esp
 25b:	50                   	push   %eax
 25c:	68 76 00 00 00       	push   $0x76
 261:	e8 fc ff ff ff       	call   262 <heap_grow+0x1d5>
 266:	83 c4 10             	add    $0x10,%esp
		printf("\nRegion reserved: %i",(uint32_t) regions[regionCount].reserved);
 269:	8b 15 00 00 00 00    	mov    0x0,%edx
 26f:	a1 04 00 00 00       	mov    0x4,%eax
 274:	01 c0                	add    %eax,%eax
 276:	89 c1                	mov    %eax,%ecx
 278:	c1 e1 04             	shl    $0x4,%ecx
 27b:	29 c1                	sub    %eax,%ecx
 27d:	89 c8                	mov    %ecx,%eax
 27f:	01 d0                	add    %edx,%eax
 281:	0f b6 40 08          	movzbl 0x8(%eax),%eax
 285:	0f b6 c0             	movzbl %al,%eax
 288:	83 ec 08             	sub    $0x8,%esp
 28b:	50                   	push   %eax
 28c:	68 86 00 00 00       	push   $0x86
 291:	e8 fc ff ff ff       	call   292 <heap_grow+0x205>
 296:	83 c4 10             	add    $0x10,%esp
		printf("\nRegion Size: %i", (uint32_t) regions[regionCount].size);
 299:	8b 15 00 00 00 00    	mov    0x0,%edx
 29f:	a1 04 00 00 00       	mov    0x4,%eax
 2a4:	01 c0                	add    %eax,%eax
 2a6:	89 c1                	mov    %eax,%ecx
 2a8:	c1 e1 04             	shl    $0x4,%ecx
 2ab:	29 c1                	sub    %eax,%ecx
 2ad:	89 c8                	mov    %ecx,%eax
 2af:	01 d0                	add    %edx,%eax
 2b1:	8b 00                	mov    (%eax),%eax
 2b3:	83 ec 08             	sub    $0x8,%esp
 2b6:	50                   	push   %eax
 2b7:	68 9b 00 00 00       	push   $0x9b
 2bc:	e8 fc ff ff ff       	call   2bd <heap_grow+0x230>
 2c1:	83 c4 10             	add    $0x10,%esp
		printf("\nRegion Number: %i", (uint32_t) regions[regionCount].number);
 2c4:	8b 15 00 00 00 00    	mov    0x0,%edx
 2ca:	a1 04 00 00 00       	mov    0x4,%eax
 2cf:	01 c0                	add    %eax,%eax
 2d1:	89 c1                	mov    %eax,%ecx
 2d3:	c1 e1 04             	shl    $0x4,%ecx
 2d6:	29 c1                	sub    %eax,%ecx
 2d8:	89 c8                	mov    %ecx,%eax
 2da:	01 d0                	add    %edx,%eax
 2dc:	8b 40 04             	mov    0x4(%eax),%eax
 2df:	83 ec 08             	sub    $0x8,%esp
 2e2:	50                   	push   %eax
 2e3:	68 ac 00 00 00       	push   $0xac
 2e8:	e8 fc ff ff ff       	call   2e9 <heap_grow+0x25c>
 2ed:	83 c4 10             	add    $0x10,%esp

		++regionCount;
 2f0:	a1 04 00 00 00       	mov    0x4,%eax
 2f5:	83 c0 01             	add    $0x1,%eax
 2f8:	a3 04 00 00 00       	mov    %eax,0x4
	}

	heapSize += size;
 2fd:	8b 15 10 00 00 00    	mov    0x10,%edx
 303:	8b 45 08             	mov    0x8(%ebp),%eax
 306:	01 d0                	add    %edx,%eax
 308:	a3 10 00 00 00       	mov    %eax,0x10
	return 1;
 30d:	b8 01 00 00 00       	mov    $0x1,%eax
}
 312:	8b 5d fc             	mov    -0x4(%ebp),%ebx
 315:	c9                   	leave  
 316:	c3                   	ret    

00000317 <heap_get_current_end>:

void* heap_get_current_end()
{
 317:	55                   	push   %ebp
 318:	89 e5                	mov    %esp,%ebp
	return (void*)(HEAP_START + heapSize);
 31a:	8b 15 04 00 00 00    	mov    0x4,%edx
 320:	a1 10 00 00 00       	mov    0x10,%eax
 325:	01 d0                	add    %edx,%eax
}
 327:	5d                   	pop    %ebp
 328:	c3                   	ret    

00000329 <init_kernel_heap>:

void init_kernel_heap()
{
 329:	55                   	push   %ebp
 32a:	89 e5                	mov    %esp,%ebp
 32c:	53                   	push   %ebx
 32d:	83 ec 14             	sub    $0x14,%esp
	// Map placement area

	uint32_t i = PLACEMENT_BEGIN;
 330:	c7 45 f4 00 00 00 d0 	movl   $0xd0000000,-0xc(%ebp)

	for (i; i < PLACEMENT_END; i += PAGE_SIZE)
 337:	eb 22                	jmp    35b <init_kernel_heap+0x32>
	{
		vmmngr_mapPhysicalAddress(vmmngr_get_directory(), i, (uint32_t)pmmngr_alloc_block(), I86_PTE_PRESENT | I86_PTE_WRITABLE);
 339:	e8 fc ff ff ff       	call   33a <init_kernel_heap+0x11>
 33e:	89 c3                	mov    %eax,%ebx
 340:	e8 fc ff ff ff       	call   341 <init_kernel_heap+0x18>
 345:	6a 03                	push   $0x3
 347:	53                   	push   %ebx
 348:	ff 75 f4             	pushl  -0xc(%ebp)
 34b:	50                   	push   %eax
 34c:	e8 fc ff ff ff       	call   34d <init_kernel_heap+0x24>
 351:	83 c4 10             	add    $0x10,%esp
{
	// Map placement area

	uint32_t i = PLACEMENT_BEGIN;

	for (i; i < PLACEMENT_END; i += PAGE_SIZE)
 354:	81 45 f4 00 10 00 00 	addl   $0x1000,-0xc(%ebp)
 35b:	81 7d f4 ff ff 1f d0 	cmpl   $0xd01fffff,-0xc(%ebp)
 362:	76 d5                	jbe    339 <init_kernel_heap+0x10>
	{
		vmmngr_mapPhysicalAddress(vmmngr_get_directory(), i, (uint32_t)pmmngr_alloc_block(), I86_PTE_PRESENT | I86_PTE_WRITABLE);
	}

	printf("Placement mapping done.\n");
 364:	83 ec 0c             	sub    $0xc,%esp
 367:	68 bf 00 00 00       	push   $0xbf
 36c:	e8 fc ff ff ff       	call   36d <init_kernel_heap+0x44>
 371:	83 c4 10             	add    $0x10,%esp

	regions = (region_t*)pmalloc(0, 0);
 374:	83 ec 08             	sub    $0x8,%esp
 377:	6a 00                	push   $0x0
 379:	6a 00                	push   $0x0
 37b:	e8 fc ff ff ff       	call   37c <init_kernel_heap+0x53>
 380:	83 c4 10             	add    $0x10,%esp
 383:	a3 00 00 00 00       	mov    %eax,0x0

	regionCount = 0;
 388:	c7 05 04 00 00 00 00 	movl   $0x0,0x4
 38f:	00 00 00 
	regionMaxCount = (PLACEMENT_END - (uint32_t)regions) / sizeof(region_t);
 392:	a1 00 00 00 00       	mov    0x0,%eax
 397:	ba 00 00 20 d0       	mov    $0xd0200000,%edx
 39c:	29 c2                	sub    %eax,%edx
 39e:	89 d0                	mov    %edx,%eax
 3a0:	ba 89 88 88 88       	mov    $0x88888889,%edx
 3a5:	f7 e2                	mul    %edx
 3a7:	89 d0                	mov    %edx,%eax
 3a9:	c1 e8 04             	shr    $0x4,%eax
 3ac:	a3 08 00 00 00       	mov    %eax,0x8
}
 3b1:	90                   	nop
 3b2:	8b 5d fc             	mov    -0x4(%ebp),%ebx
 3b5:	c9                   	leave  
 3b6:	c3                   	ret    

000003b7 <kmalloc_imp>:

void* kmalloc_imp(size_t size, uint32_t alignment, const char* comment)
{
 3b7:	55                   	push   %ebp
 3b8:	89 e5                	mov    %esp,%ebp
 3ba:	56                   	push   %esi
 3bb:	53                   	push   %ebx
 3bc:	83 ec 40             	sub    $0x40,%esp
	printf("\n[kmalloc] Size:%i, Alignment: %i, Comment: %s", size, alignment, comment);
 3bf:	ff 75 10             	pushl  0x10(%ebp)
 3c2:	ff 75 0c             	pushl  0xc(%ebp)
 3c5:	ff 75 08             	pushl  0x8(%ebp)
 3c8:	68 d8 00 00 00       	push   $0xd8
 3cd:	e8 fc ff ff ff       	call   3ce <kmalloc_imp+0x17>
 3d2:	83 c4 10             	add    $0x10,%esp

	static uint32_t consecutiveNumber = 0;

	size_t within = 0xFFFFFFFF;
 3d5:	c7 45 f4 ff ff ff ff 	movl   $0xffffffff,-0xc(%ebp)

	if (alignment & HEAP_WITHIN_PAGE)
 3dc:	8b 45 0c             	mov    0xc(%ebp),%eax
 3df:	25 00 00 00 01       	and    $0x1000000,%eax
 3e4:	85 c0                	test   %eax,%eax
 3e6:	74 09                	je     3f1 <kmalloc_imp+0x3a>
	{
		within = PAGE_SIZE;
 3e8:	c7 45 f4 00 10 00 00 	movl   $0x1000,-0xc(%ebp)
 3ef:	eb 13                	jmp    404 <kmalloc_imp+0x4d>
	}
	else if (alignment & HEAP_WITHIN_64K)
 3f1:	8b 45 0c             	mov    0xc(%ebp),%eax
 3f4:	25 00 00 00 02       	and    $0x2000000,%eax
 3f9:	85 c0                	test   %eax,%eax
 3fb:	74 07                	je     404 <kmalloc_imp+0x4d>
	{
		within = 0x10000;
 3fd:	c7 45 f4 00 00 01 00 	movl   $0x10000,-0xc(%ebp)
	}

	int continuous = (alignment & HEAP_CONTINUOUS) ? 1 : 0;
 404:	8b 45 0c             	mov    0xc(%ebp),%eax
 407:	c1 e8 1f             	shr    $0x1f,%eax
 40a:	0f b6 c0             	movzbl %al,%eax
 40d:	89 45 dc             	mov    %eax,-0x24(%ebp)

	alignment &= HEAP_ALIGNMENT_MASK;
 410:	81 65 0c ff ff ff 00 	andl   $0xffffff,0xc(%ebp)

	// Check if heap is set up.

	if (regions == 0)
 417:	a1 00 00 00 00       	mov    0x0,%eax
 41c:	85 c0                	test   %eax,%eax
 41e:	75 26                	jne    446 <kmalloc_imp+0x8f>
	{
		printf("\nError2");
 420:	83 ec 0c             	sub    $0xc,%esp
 423:	68 07 01 00 00       	push   $0x107
 428:	e8 fc ff ff ff       	call   429 <kmalloc_imp+0x72>
 42d:	83 c4 10             	add    $0x10,%esp
		return (pmalloc(size, alignment));
 430:	83 ec 08             	sub    $0x8,%esp
 433:	ff 75 0c             	pushl  0xc(%ebp)
 436:	ff 75 08             	pushl  0x8(%ebp)
 439:	e8 fc ff ff ff       	call   43a <kmalloc_imp+0x83>
 43e:	83 c4 10             	add    $0x10,%esp
 441:	e9 f5 05 00 00       	jmp    a3b <kmalloc_imp+0x684>
	}

	size = alignUp(size, 0);
 446:	83 ec 08             	sub    $0x8,%esp
 449:	6a 00                	push   $0x0
 44b:	ff 75 08             	pushl  0x8(%ebp)
 44e:	e8 fc ff ff ff       	call   44f <kmalloc_imp+0x98>
 453:	83 c4 10             	add    $0x10,%esp
 456:	89 45 08             	mov    %eax,0x8(%ebp)

	int foundFree = 0;
 459:	c7 45 f0 00 00 00 00 	movl   $0x0,-0x10(%ebp)

	uint8_t* regionAddress = (uint8_t*)firstFreeAddr;
 460:	a1 00 00 00 00       	mov    0x0,%eax
 465:	89 45 ec             	mov    %eax,-0x14(%ebp)

	for (uint32_t i = firstFreeRegion; i < regionCount;++i)
 468:	a1 0c 00 00 00       	mov    0xc,%eax
 46d:	89 45 e8             	mov    %eax,-0x18(%ebp)
 470:	e9 16 05 00 00       	jmp    98b <kmalloc_imp+0x5d4>
	{
		printf("\nRegion Loop: %i", i);
 475:	83 ec 08             	sub    $0x8,%esp
 478:	ff 75 e8             	pushl  -0x18(%ebp)
 47b:	68 0f 01 00 00       	push   $0x10f
 480:	e8 fc ff ff ff       	call   481 <kmalloc_imp+0xca>
 485:	83 c4 10             	add    $0x10,%esp
		if (regions[i].reserved)
 488:	8b 15 00 00 00 00    	mov    0x0,%edx
 48e:	8b 45 e8             	mov    -0x18(%ebp),%eax
 491:	01 c0                	add    %eax,%eax
 493:	89 c1                	mov    %eax,%ecx
 495:	c1 e1 04             	shl    $0x4,%ecx
 498:	29 c1                	sub    %eax,%ecx
 49a:	89 c8                	mov    %ecx,%eax
 49c:	01 d0                	add    %edx,%eax
 49e:	0f b6 40 08          	movzbl 0x8(%eax),%eax
 4a2:	84 c0                	test   %al,%al
 4a4:	74 19                	je     4bf <kmalloc_imp+0x108>
		{
			printf("\nFound Free");
 4a6:	83 ec 0c             	sub    $0xc,%esp
 4a9:	68 20 01 00 00       	push   $0x120
 4ae:	e8 fc ff ff ff       	call   4af <kmalloc_imp+0xf8>
 4b3:	83 c4 10             	add    $0x10,%esp
			foundFree = 1;
 4b6:	c7 45 f0 01 00 00 00 	movl   $0x1,-0x10(%ebp)
 4bd:	eb 26                	jmp    4e5 <kmalloc_imp+0x12e>
		}
		else if (!foundFree)
 4bf:	83 7d f0 00          	cmpl   $0x0,-0x10(%ebp)
 4c3:	75 20                	jne    4e5 <kmalloc_imp+0x12e>
		{
			printf("\nNot Found Free");
 4c5:	83 ec 0c             	sub    $0xc,%esp
 4c8:	68 2c 01 00 00       	push   $0x12c
 4cd:	e8 fc ff ff ff       	call   4ce <kmalloc_imp+0x117>
 4d2:	83 c4 10             	add    $0x10,%esp
			firstFreeRegion = i;
 4d5:	8b 45 e8             	mov    -0x18(%ebp),%eax
 4d8:	a3 0c 00 00 00       	mov    %eax,0xc
			firstFreeAddr = regionAddress;
 4dd:	8b 45 ec             	mov    -0x14(%ebp),%eax
 4e0:	a3 00 00 00 00       	mov    %eax,0x0
		}

		uint8_t* alignedAddress = (uint8_t*)alignUp((uintptr_t)regionAddress, alignment);
 4e5:	8b 45 ec             	mov    -0x14(%ebp),%eax
 4e8:	83 ec 08             	sub    $0x8,%esp
 4eb:	ff 75 0c             	pushl  0xc(%ebp)
 4ee:	50                   	push   %eax
 4ef:	e8 fc ff ff ff       	call   4f0 <kmalloc_imp+0x139>
 4f4:	83 c4 10             	add    $0x10,%esp
 4f7:	89 45 d8             	mov    %eax,-0x28(%ebp)
		uintptr_t additionalSize = (uintptr_t)alignedAddress - (uintptr_t)regionAddress;
 4fa:	8b 55 d8             	mov    -0x28(%ebp),%edx
 4fd:	8b 45 ec             	mov    -0x14(%ebp),%eax
 500:	29 c2                	sub    %eax,%edx
 502:	89 d0                	mov    %edx,%eax
 504:	89 45 d4             	mov    %eax,-0x2c(%ebp)

		// Check whether this region is free, big enough and fits page requirements
		if (!regions[i].reserved && (regions[i].size >= size + additionalSize) &&
 507:	8b 15 00 00 00 00    	mov    0x0,%edx
 50d:	8b 45 e8             	mov    -0x18(%ebp),%eax
 510:	01 c0                	add    %eax,%eax
 512:	89 c1                	mov    %eax,%ecx
 514:	c1 e1 04             	shl    $0x4,%ecx
 517:	29 c1                	sub    %eax,%ecx
 519:	89 c8                	mov    %ecx,%eax
 51b:	01 d0                	add    %edx,%eax
 51d:	0f b6 40 08          	movzbl 0x8(%eax),%eax
 521:	84 c0                	test   %al,%al
 523:	0f 85 40 04 00 00    	jne    969 <kmalloc_imp+0x5b2>
 529:	8b 15 00 00 00 00    	mov    0x0,%edx
 52f:	8b 45 e8             	mov    -0x18(%ebp),%eax
 532:	01 c0                	add    %eax,%eax
 534:	89 c1                	mov    %eax,%ecx
 536:	c1 e1 04             	shl    $0x4,%ecx
 539:	29 c1                	sub    %eax,%ecx
 53b:	89 c8                	mov    %ecx,%eax
 53d:	01 d0                	add    %edx,%eax
 53f:	8b 00                	mov    (%eax),%eax
 541:	8b 4d 08             	mov    0x8(%ebp),%ecx
 544:	8b 55 d4             	mov    -0x2c(%ebp),%edx
 547:	01 ca                	add    %ecx,%edx
 549:	39 d0                	cmp    %edx,%eax
 54b:	0f 82 18 04 00 00    	jb     969 <kmalloc_imp+0x5b2>
			(within - (uintptr_t)regionAddress%within >= additionalSize))
 551:	8b 45 ec             	mov    -0x14(%ebp),%eax
 554:	ba 00 00 00 00       	mov    $0x0,%edx
 559:	f7 75 f4             	divl   -0xc(%ebp)
 55c:	8b 45 f4             	mov    -0xc(%ebp),%eax
 55f:	29 d0                	sub    %edx,%eax

		uint8_t* alignedAddress = (uint8_t*)alignUp((uintptr_t)regionAddress, alignment);
		uintptr_t additionalSize = (uintptr_t)alignedAddress - (uintptr_t)regionAddress;

		// Check whether this region is free, big enough and fits page requirements
		if (!regions[i].reserved && (regions[i].size >= size + additionalSize) &&
 561:	3b 45 d4             	cmp    -0x2c(%ebp),%eax
 564:	0f 82 ff 03 00 00    	jb     969 <kmalloc_imp+0x5b2>
			(within - (uintptr_t)regionAddress%within >= additionalSize))
		{
			printf("\nFound Free, big and page");
 56a:	83 ec 0c             	sub    $0xc,%esp
 56d:	68 3c 01 00 00       	push   $0x13c
 572:	e8 fc ff ff ff       	call   573 <kmalloc_imp+0x1bc>
 577:	83 c4 10             	add    $0x10,%esp
			// Check if the region consists of continuous physical memory if required
			if (continuous)
 57a:	83 7d dc 00          	cmpl   $0x0,-0x24(%ebp)
 57e:	0f 84 91 00 00 00    	je     615 <kmalloc_imp+0x25e>
			{
				int iscontinuous = 1;
 584:	c7 45 e4 01 00 00 00 	movl   $0x1,-0x1c(%ebp)
				for (uint32_t virt1 = (uint32_t)alignDown((uintptr_t)alignedAddress, PAGE_SIZE); (uintptr_t)((uint32_t)virt1 + PAGE_SIZE) <= (uintptr_t)(alignedAddress + size); virt1 += PAGE_SIZE)
 58b:	8b 45 d8             	mov    -0x28(%ebp),%eax
 58e:	83 ec 08             	sub    $0x8,%esp
 591:	68 00 10 00 00       	push   $0x1000
 596:	50                   	push   %eax
 597:	e8 fc ff ff ff       	call   598 <kmalloc_imp+0x1e1>
 59c:	83 c4 10             	add    $0x10,%esp
 59f:	89 45 e0             	mov    %eax,-0x20(%ebp)
 5a2:	eb 52                	jmp    5f6 <kmalloc_imp+0x23f>
				{
					uintptr_t phys1 = (uintptr_t)vmmngr_getPhysicalAddress(vmmngr_get_directory(), (uint32_t)virt1);
 5a4:	e8 fc ff ff ff       	call   5a5 <kmalloc_imp+0x1ee>
 5a9:	83 ec 08             	sub    $0x8,%esp
 5ac:	ff 75 e0             	pushl  -0x20(%ebp)
 5af:	50                   	push   %eax
 5b0:	e8 fc ff ff ff       	call   5b1 <kmalloc_imp+0x1fa>
 5b5:	83 c4 10             	add    $0x10,%esp
 5b8:	89 45 d0             	mov    %eax,-0x30(%ebp)
					uintptr_t phys2 = (uintptr_t)vmmngr_getPhysicalAddress(vmmngr_get_directory(), (uint32_t)virt1 + PAGE_SIZE);
 5bb:	8b 45 e0             	mov    -0x20(%ebp),%eax
 5be:	8d 98 00 10 00 00    	lea    0x1000(%eax),%ebx
 5c4:	e8 fc ff ff ff       	call   5c5 <kmalloc_imp+0x20e>
 5c9:	83 ec 08             	sub    $0x8,%esp
 5cc:	53                   	push   %ebx
 5cd:	50                   	push   %eax
 5ce:	e8 fc ff ff ff       	call   5cf <kmalloc_imp+0x218>
 5d3:	83 c4 10             	add    $0x10,%esp
 5d6:	89 45 cc             	mov    %eax,-0x34(%ebp)
					if (phys1 + PAGE_SIZE != phys2)
 5d9:	8b 45 d0             	mov    -0x30(%ebp),%eax
 5dc:	05 00 10 00 00       	add    $0x1000,%eax
 5e1:	3b 45 cc             	cmp    -0x34(%ebp),%eax
 5e4:	74 09                	je     5ef <kmalloc_imp+0x238>
					{
						iscontinuous = 0;
 5e6:	c7 45 e4 00 00 00 00 	movl   $0x0,-0x1c(%ebp)
						break;
 5ed:	eb 1c                	jmp    60b <kmalloc_imp+0x254>
			printf("\nFound Free, big and page");
			// Check if the region consists of continuous physical memory if required
			if (continuous)
			{
				int iscontinuous = 1;
				for (uint32_t virt1 = (uint32_t)alignDown((uintptr_t)alignedAddress, PAGE_SIZE); (uintptr_t)((uint32_t)virt1 + PAGE_SIZE) <= (uintptr_t)(alignedAddress + size); virt1 += PAGE_SIZE)
 5ef:	81 45 e0 00 10 00 00 	addl   $0x1000,-0x20(%ebp)
 5f6:	8b 45 e0             	mov    -0x20(%ebp),%eax
 5f9:	8d 88 00 10 00 00    	lea    0x1000(%eax),%ecx
 5ff:	8b 55 d8             	mov    -0x28(%ebp),%edx
 602:	8b 45 08             	mov    0x8(%ebp),%eax
 605:	01 d0                	add    %edx,%eax
 607:	39 c1                	cmp    %eax,%ecx
 609:	76 99                	jbe    5a4 <kmalloc_imp+0x1ed>
					{
						iscontinuous = 0;
						break;
					}
				}
				if (!iscontinuous)
 60b:	83 7d e4 00          	cmpl   $0x0,-0x1c(%ebp)
 60f:	0f 84 71 03 00 00    	je     986 <kmalloc_imp+0x5cf>
			// +------------------+--------------------------+----------+
			// | Before Alignment | Aligned Destination Area | Leftover |
			// +------------------+--------------------------+----------+

			// Split the pre-alignment area
			if (alignedAddress != regionAddress)
 615:	8b 45 d8             	mov    -0x28(%ebp),%eax
 618:	3b 45 ec             	cmp    -0x14(%ebp),%eax
 61b:	0f 84 43 01 00 00    	je     764 <kmalloc_imp+0x3ad>
			{
				// Check whether we are able to expand
				if (regionCount >= regionMaxCount)
 621:	8b 15 04 00 00 00    	mov    0x4,%edx
 627:	a1 08 00 00 00       	mov    0x8,%eax
 62c:	39 c2                	cmp    %eax,%edx
 62e:	72 1a                	jb     64a <kmalloc_imp+0x293>
				{
					printf("\nError3");
 630:	83 ec 0c             	sub    $0xc,%esp
 633:	68 56 01 00 00       	push   $0x156
 638:	e8 fc ff ff ff       	call   639 <kmalloc_imp+0x282>
 63d:	83 c4 10             	add    $0x10,%esp
					return (0);
 640:	b8 00 00 00 00       	mov    $0x0,%eax
 645:	e9 f1 03 00 00       	jmp    a3b <kmalloc_imp+0x684>
				}

				printf("\nMoving regions");
 64a:	83 ec 0c             	sub    $0xc,%esp
 64d:	68 5e 01 00 00       	push   $0x15e
 652:	e8 fc ff ff ff       	call   653 <kmalloc_imp+0x29c>
 657:	83 c4 10             	add    $0x10,%esp

				// Move all following regions ahead to get room for a new one
				memmove(regions + i + 1, regions + i, (regionCount - i) * sizeof(region_t));
 65a:	a1 04 00 00 00       	mov    0x4,%eax
 65f:	2b 45 e8             	sub    -0x18(%ebp),%eax
 662:	01 c0                	add    %eax,%eax
 664:	89 c2                	mov    %eax,%edx
 666:	c1 e2 04             	shl    $0x4,%edx
 669:	89 d1                	mov    %edx,%ecx
 66b:	29 c1                	sub    %eax,%ecx
 66d:	8b 15 00 00 00 00    	mov    0x0,%edx
 673:	8b 45 e8             	mov    -0x18(%ebp),%eax
 676:	01 c0                	add    %eax,%eax
 678:	89 c3                	mov    %eax,%ebx
 67a:	c1 e3 04             	shl    $0x4,%ebx
 67d:	29 c3                	sub    %eax,%ebx
 67f:	89 d8                	mov    %ebx,%eax
 681:	01 c2                	add    %eax,%edx
 683:	8b 1d 00 00 00 00    	mov    0x0,%ebx
 689:	8b 45 e8             	mov    -0x18(%ebp),%eax
 68c:	83 c0 01             	add    $0x1,%eax
 68f:	01 c0                	add    %eax,%eax
 691:	89 c6                	mov    %eax,%esi
 693:	c1 e6 04             	shl    $0x4,%esi
 696:	29 c6                	sub    %eax,%esi
 698:	89 f0                	mov    %esi,%eax
 69a:	01 d8                	add    %ebx,%eax
 69c:	83 ec 04             	sub    $0x4,%esp
 69f:	51                   	push   %ecx
 6a0:	52                   	push   %edx
 6a1:	50                   	push   %eax
 6a2:	e8 fc ff ff ff       	call   6a3 <kmalloc_imp+0x2ec>
 6a7:	83 c4 10             	add    $0x10,%esp

				++regionCount;
 6aa:	a1 04 00 00 00       	mov    0x4,%eax
 6af:	83 c0 01             	add    $0x1,%eax
 6b2:	a3 04 00 00 00       	mov    %eax,0x4

				// Setup the regions
				regions[i].size = alignedAddress - regionAddress;
 6b7:	8b 15 00 00 00 00    	mov    0x0,%edx
 6bd:	8b 45 e8             	mov    -0x18(%ebp),%eax
 6c0:	01 c0                	add    %eax,%eax
 6c2:	89 c1                	mov    %eax,%ecx
 6c4:	c1 e1 04             	shl    $0x4,%ecx
 6c7:	29 c1                	sub    %eax,%ecx
 6c9:	89 c8                	mov    %ecx,%eax
 6cb:	01 d0                	add    %edx,%eax
 6cd:	8b 4d d8             	mov    -0x28(%ebp),%ecx
 6d0:	8b 55 ec             	mov    -0x14(%ebp),%edx
 6d3:	29 d1                	sub    %edx,%ecx
 6d5:	89 ca                	mov    %ecx,%edx
 6d7:	89 10                	mov    %edx,(%eax)

				regions[i].reserved = 0;
 6d9:	8b 15 00 00 00 00    	mov    0x0,%edx
 6df:	8b 45 e8             	mov    -0x18(%ebp),%eax
 6e2:	01 c0                	add    %eax,%eax
 6e4:	89 c1                	mov    %eax,%ecx
 6e6:	c1 e1 04             	shl    $0x4,%ecx
 6e9:	29 c1                	sub    %eax,%ecx
 6eb:	89 c8                	mov    %ecx,%eax
 6ed:	01 d0                	add    %edx,%eax
 6ef:	c6 40 08 00          	movb   $0x0,0x8(%eax)

				regions[i + 1].size -= regions[i].size;
 6f3:	8b 15 00 00 00 00    	mov    0x0,%edx
 6f9:	8b 45 e8             	mov    -0x18(%ebp),%eax
 6fc:	83 c0 01             	add    $0x1,%eax
 6ff:	01 c0                	add    %eax,%eax
 701:	89 c1                	mov    %eax,%ecx
 703:	c1 e1 04             	shl    $0x4,%ecx
 706:	29 c1                	sub    %eax,%ecx
 708:	89 c8                	mov    %ecx,%eax
 70a:	01 c2                	add    %eax,%edx
 70c:	8b 0d 00 00 00 00    	mov    0x0,%ecx
 712:	8b 45 e8             	mov    -0x18(%ebp),%eax
 715:	83 c0 01             	add    $0x1,%eax
 718:	01 c0                	add    %eax,%eax
 71a:	89 c3                	mov    %eax,%ebx
 71c:	c1 e3 04             	shl    $0x4,%ebx
 71f:	29 c3                	sub    %eax,%ebx
 721:	89 d8                	mov    %ebx,%eax
 723:	01 c8                	add    %ecx,%eax
 725:	8b 08                	mov    (%eax),%ecx
 727:	8b 1d 00 00 00 00    	mov    0x0,%ebx
 72d:	8b 45 e8             	mov    -0x18(%ebp),%eax
 730:	01 c0                	add    %eax,%eax
 732:	89 c6                	mov    %eax,%esi
 734:	c1 e6 04             	shl    $0x4,%esi
 737:	29 c6                	sub    %eax,%esi
 739:	89 f0                	mov    %esi,%eax
 73b:	01 d8                	add    %ebx,%eax
 73d:	8b 00                	mov    (%eax),%eax
 73f:	29 c1                	sub    %eax,%ecx
 741:	89 c8                	mov    %ecx,%eax
 743:	89 02                	mov    %eax,(%edx)

				// "Aligned Destination Area" becomes the "current" region
				regionAddress += regions[i].size;
 745:	8b 15 00 00 00 00    	mov    0x0,%edx
 74b:	8b 45 e8             	mov    -0x18(%ebp),%eax
 74e:	01 c0                	add    %eax,%eax
 750:	89 c1                	mov    %eax,%ecx
 752:	c1 e1 04             	shl    $0x4,%ecx
 755:	29 c1                	sub    %eax,%ecx
 757:	89 c8                	mov    %ecx,%eax
 759:	01 d0                	add    %edx,%eax
 75b:	8b 00                	mov    (%eax),%eax
 75d:	01 45 ec             	add    %eax,-0x14(%ebp)

				i++;
 760:	83 45 e8 01          	addl   $0x1,-0x18(%ebp)
			}

			// Split the leftover
			if (regions[i].size > size + additionalSize)
 764:	8b 15 00 00 00 00    	mov    0x0,%edx
 76a:	8b 45 e8             	mov    -0x18(%ebp),%eax
 76d:	01 c0                	add    %eax,%eax
 76f:	89 c1                	mov    %eax,%ecx
 771:	c1 e1 04             	shl    $0x4,%ecx
 774:	29 c1                	sub    %eax,%ecx
 776:	89 c8                	mov    %ecx,%eax
 778:	01 d0                	add    %edx,%eax
 77a:	8b 00                	mov    (%eax),%eax
 77c:	8b 4d 08             	mov    0x8(%ebp),%ecx
 77f:	8b 55 d4             	mov    -0x2c(%ebp),%edx
 782:	01 ca                	add    %ecx,%edx
 784:	39 d0                	cmp    %edx,%eax
 786:	0f 86 3c 01 00 00    	jbe    8c8 <kmalloc_imp+0x511>
			{

				printf("\nSplitting leftover");
 78c:	83 ec 0c             	sub    $0xc,%esp
 78f:	68 6e 01 00 00       	push   $0x16e
 794:	e8 fc ff ff ff       	call   795 <kmalloc_imp+0x3de>
 799:	83 c4 10             	add    $0x10,%esp
				// Check whether we are able to expand
				if (regionCount + 1 > regionMaxCount)
 79c:	a1 04 00 00 00       	mov    0x4,%eax
 7a1:	8d 50 01             	lea    0x1(%eax),%edx
 7a4:	a1 08 00 00 00       	mov    0x8,%eax
 7a9:	39 c2                	cmp    %eax,%edx
 7ab:	76 1a                	jbe    7c7 <kmalloc_imp+0x410>
				{
					printf("\nError4");
 7ad:	83 ec 0c             	sub    $0xc,%esp
 7b0:	68 82 01 00 00       	push   $0x182
 7b5:	e8 fc ff ff ff       	call   7b6 <kmalloc_imp+0x3ff>
 7ba:	83 c4 10             	add    $0x10,%esp
					return (0);
 7bd:	b8 00 00 00 00       	mov    $0x0,%eax
 7c2:	e9 74 02 00 00       	jmp    a3b <kmalloc_imp+0x684>
				}

				printf("\nMoving regions 2");
 7c7:	83 ec 0c             	sub    $0xc,%esp
 7ca:	68 8a 01 00 00       	push   $0x18a
 7cf:	e8 fc ff ff ff       	call   7d0 <kmalloc_imp+0x419>
 7d4:	83 c4 10             	add    $0x10,%esp

				// Move all following regions ahead to get room for a new one
				memmove(regions + i + 2, regions + i + 1, (regionCount - i - 1)*sizeof(region_t));
 7d7:	a1 04 00 00 00       	mov    0x4,%eax
 7dc:	2b 45 e8             	sub    -0x18(%ebp),%eax
 7df:	01 c0                	add    %eax,%eax
 7e1:	89 c2                	mov    %eax,%edx
 7e3:	c1 e2 04             	shl    $0x4,%edx
 7e6:	29 c2                	sub    %eax,%edx
 7e8:	89 d0                	mov    %edx,%eax
 7ea:	8d 48 e2             	lea    -0x1e(%eax),%ecx
 7ed:	8b 15 00 00 00 00    	mov    0x0,%edx
 7f3:	8b 45 e8             	mov    -0x18(%ebp),%eax
 7f6:	83 c0 01             	add    $0x1,%eax
 7f9:	01 c0                	add    %eax,%eax
 7fb:	89 c3                	mov    %eax,%ebx
 7fd:	c1 e3 04             	shl    $0x4,%ebx
 800:	29 c3                	sub    %eax,%ebx
 802:	89 d8                	mov    %ebx,%eax
 804:	01 c2                	add    %eax,%edx
 806:	8b 1d 00 00 00 00    	mov    0x0,%ebx
 80c:	8b 45 e8             	mov    -0x18(%ebp),%eax
 80f:	01 c0                	add    %eax,%eax
 811:	89 c6                	mov    %eax,%esi
 813:	c1 e6 04             	shl    $0x4,%esi
 816:	29 c6                	sub    %eax,%esi
 818:	89 f0                	mov    %esi,%eax
 81a:	83 c0 3c             	add    $0x3c,%eax
 81d:	01 d8                	add    %ebx,%eax
 81f:	83 ec 04             	sub    $0x4,%esp
 822:	51                   	push   %ecx
 823:	52                   	push   %edx
 824:	50                   	push   %eax
 825:	e8 fc ff ff ff       	call   826 <kmalloc_imp+0x46f>
 82a:	83 c4 10             	add    $0x10,%esp

				++regionCount;
 82d:	a1 04 00 00 00       	mov    0x4,%eax
 832:	83 c0 01             	add    $0x1,%eax
 835:	a3 04 00 00 00       	mov    %eax,0x4

				// Setup the regions
				regions[i + 1].size = regions[i].size - size;
 83a:	8b 15 00 00 00 00    	mov    0x0,%edx
 840:	8b 45 e8             	mov    -0x18(%ebp),%eax
 843:	83 c0 01             	add    $0x1,%eax
 846:	01 c0                	add    %eax,%eax
 848:	89 c1                	mov    %eax,%ecx
 84a:	c1 e1 04             	shl    $0x4,%ecx
 84d:	29 c1                	sub    %eax,%ecx
 84f:	89 c8                	mov    %ecx,%eax
 851:	01 c2                	add    %eax,%edx
 853:	8b 0d 00 00 00 00    	mov    0x0,%ecx
 859:	8b 45 e8             	mov    -0x18(%ebp),%eax
 85c:	01 c0                	add    %eax,%eax
 85e:	89 c3                	mov    %eax,%ebx
 860:	c1 e3 04             	shl    $0x4,%ebx
 863:	29 c3                	sub    %eax,%ebx
 865:	89 d8                	mov    %ebx,%eax
 867:	01 c8                	add    %ecx,%eax
 869:	8b 00                	mov    (%eax),%eax
 86b:	2b 45 08             	sub    0x8(%ebp),%eax
 86e:	89 02                	mov    %eax,(%edx)
				regions[i + 1].reserved = 0;
 870:	8b 15 00 00 00 00    	mov    0x0,%edx
 876:	8b 45 e8             	mov    -0x18(%ebp),%eax
 879:	83 c0 01             	add    $0x1,%eax
 87c:	01 c0                	add    %eax,%eax
 87e:	89 c1                	mov    %eax,%ecx
 880:	c1 e1 04             	shl    $0x4,%ecx
 883:	29 c1                	sub    %eax,%ecx
 885:	89 c8                	mov    %ecx,%eax
 887:	01 d0                	add    %edx,%eax
 889:	c6 40 08 00          	movb   $0x0,0x8(%eax)
				regions[i + 1].number = 0;
 88d:	8b 15 00 00 00 00    	mov    0x0,%edx
 893:	8b 45 e8             	mov    -0x18(%ebp),%eax
 896:	83 c0 01             	add    $0x1,%eax
 899:	01 c0                	add    %eax,%eax
 89b:	89 c1                	mov    %eax,%ecx
 89d:	c1 e1 04             	shl    $0x4,%ecx
 8a0:	29 c1                	sub    %eax,%ecx
 8a2:	89 c8                	mov    %ecx,%eax
 8a4:	01 d0                	add    %edx,%eax
 8a6:	c7 40 04 00 00 00 00 	movl   $0x0,0x4(%eax)

				regions[i].size = size;
 8ad:	8b 15 00 00 00 00    	mov    0x0,%edx
 8b3:	8b 45 e8             	mov    -0x18(%ebp),%eax
 8b6:	01 c0                	add    %eax,%eax
 8b8:	89 c1                	mov    %eax,%ecx
 8ba:	c1 e1 04             	shl    $0x4,%ecx
 8bd:	29 c1                	sub    %eax,%ecx
 8bf:	89 c8                	mov    %ecx,%eax
 8c1:	01 c2                	add    %eax,%edx
 8c3:	8b 45 08             	mov    0x8(%ebp),%eax
 8c6:	89 02                	mov    %eax,(%edx)
			}

			printf("\nSet region to reserved and return");
 8c8:	83 ec 0c             	sub    $0xc,%esp
 8cb:	68 9c 01 00 00       	push   $0x19c
 8d0:	e8 fc ff ff ff       	call   8d1 <kmalloc_imp+0x51a>
 8d5:	83 c4 10             	add    $0x10,%esp

			// Set the region to "reserved" and return its address
			regions[i].reserved = 1;
 8d8:	8b 15 00 00 00 00    	mov    0x0,%edx
 8de:	8b 45 e8             	mov    -0x18(%ebp),%eax
 8e1:	01 c0                	add    %eax,%eax
 8e3:	89 c1                	mov    %eax,%ecx
 8e5:	c1 e1 04             	shl    $0x4,%ecx
 8e8:	29 c1                	sub    %eax,%ecx
 8ea:	89 c8                	mov    %ecx,%eax
 8ec:	01 d0                	add    %edx,%eax
 8ee:	c6 40 08 01          	movb   $0x1,0x8(%eax)
			strncpy(regions[i].comment, comment, 20);
 8f2:	8b 15 00 00 00 00    	mov    0x0,%edx
 8f8:	8b 45 e8             	mov    -0x18(%ebp),%eax
 8fb:	01 c0                	add    %eax,%eax
 8fd:	89 c1                	mov    %eax,%ecx
 8ff:	c1 e1 04             	shl    $0x4,%ecx
 902:	29 c1                	sub    %eax,%ecx
 904:	89 c8                	mov    %ecx,%eax
 906:	01 d0                	add    %edx,%eax
 908:	83 c0 09             	add    $0x9,%eax
 90b:	83 ec 04             	sub    $0x4,%esp
 90e:	6a 14                	push   $0x14
 910:	ff 75 10             	pushl  0x10(%ebp)
 913:	50                   	push   %eax
 914:	e8 fc ff ff ff       	call   915 <kmalloc_imp+0x55e>
 919:	83 c4 10             	add    $0x10,%esp
			regions[i].comment[20] = 0;
 91c:	8b 15 00 00 00 00    	mov    0x0,%edx
 922:	8b 45 e8             	mov    -0x18(%ebp),%eax
 925:	01 c0                	add    %eax,%eax
 927:	89 c1                	mov    %eax,%ecx
 929:	c1 e1 04             	shl    $0x4,%ecx
 92c:	29 c1                	sub    %eax,%ecx
 92e:	89 c8                	mov    %ecx,%eax
 930:	01 d0                	add    %edx,%eax
 932:	c6 40 1d 00          	movb   $0x0,0x1d(%eax)
			regions[i].number = ++consecutiveNumber;
 936:	8b 15 00 00 00 00    	mov    0x0,%edx
 93c:	8b 45 e8             	mov    -0x18(%ebp),%eax
 93f:	01 c0                	add    %eax,%eax
 941:	89 c1                	mov    %eax,%ecx
 943:	c1 e1 04             	shl    $0x4,%ecx
 946:	29 c1                	sub    %eax,%ecx
 948:	89 c8                	mov    %ecx,%eax
 94a:	01 c2                	add    %eax,%edx
 94c:	a1 14 00 00 00       	mov    0x14,%eax
 951:	83 c0 01             	add    $0x1,%eax
 954:	a3 14 00 00 00       	mov    %eax,0x14
 959:	a1 14 00 00 00       	mov    0x14,%eax
 95e:	89 42 04             	mov    %eax,0x4(%edx)

			return (regionAddress);
 961:	8b 45 ec             	mov    -0x14(%ebp),%eax
 964:	e9 d2 00 00 00       	jmp    a3b <kmalloc_imp+0x684>

		} //region is free and big enough

		regionAddress += regions[i].size;
 969:	8b 15 00 00 00 00    	mov    0x0,%edx
 96f:	8b 45 e8             	mov    -0x18(%ebp),%eax
 972:	01 c0                	add    %eax,%eax
 974:	89 c1                	mov    %eax,%ecx
 976:	c1 e1 04             	shl    $0x4,%ecx
 979:	29 c1                	sub    %eax,%ecx
 97b:	89 c8                	mov    %ecx,%eax
 97d:	01 d0                	add    %edx,%eax
 97f:	8b 00                	mov    (%eax),%eax
 981:	01 45 ec             	add    %eax,-0x14(%ebp)
 984:	eb 01                	jmp    987 <kmalloc_imp+0x5d0>
						iscontinuous = 0;
						break;
					}
				}
				if (!iscontinuous)
					continue;
 986:	90                   	nop

	int foundFree = 0;

	uint8_t* regionAddress = (uint8_t*)firstFreeAddr;

	for (uint32_t i = firstFreeRegion; i < regionCount;++i)
 987:	83 45 e8 01          	addl   $0x1,-0x18(%ebp)
 98b:	a1 04 00 00 00       	mov    0x4,%eax
 990:	39 45 e8             	cmp    %eax,-0x18(%ebp)
 993:	0f 82 dc fa ff ff    	jb     475 <kmalloc_imp+0xbe>

		regionAddress += regions[i].size;
	}

	// There is nothing free, try to expand the heap
	uint32_t sizeToGrow = max(HEAP_MIN_GROWTH, alignUp(size * 3 / 2, PAGE_SIZE));
 999:	8b 55 08             	mov    0x8(%ebp),%edx
 99c:	89 d0                	mov    %edx,%eax
 99e:	01 c0                	add    %eax,%eax
 9a0:	01 d0                	add    %edx,%eax
 9a2:	d1 e8                	shr    %eax
 9a4:	83 ec 08             	sub    $0x8,%esp
 9a7:	68 00 10 00 00       	push   $0x1000
 9ac:	50                   	push   %eax
 9ad:	e8 fc ff ff ff       	call   9ae <kmalloc_imp+0x5f7>
 9b2:	83 c4 10             	add    $0x10,%esp
 9b5:	ba 00 00 01 00       	mov    $0x10000,%edx
 9ba:	39 d0                	cmp    %edx,%eax
 9bc:	76 1e                	jbe    9dc <kmalloc_imp+0x625>
 9be:	8b 55 08             	mov    0x8(%ebp),%edx
 9c1:	89 d0                	mov    %edx,%eax
 9c3:	01 c0                	add    %eax,%eax
 9c5:	01 d0                	add    %edx,%eax
 9c7:	d1 e8                	shr    %eax
 9c9:	83 ec 08             	sub    $0x8,%esp
 9cc:	68 00 10 00 00       	push   $0x1000
 9d1:	50                   	push   %eax
 9d2:	e8 fc ff ff ff       	call   9d3 <kmalloc_imp+0x61c>
 9d7:	83 c4 10             	add    $0x10,%esp
 9da:	eb 05                	jmp    9e1 <kmalloc_imp+0x62a>
 9dc:	b8 00 00 01 00       	mov    $0x10000,%eax
 9e1:	89 45 c8             	mov    %eax,-0x38(%ebp)

	int success = heap_grow(sizeToGrow, (uint8_t*)((uintptr_t)HEAP_START + heapSize), continuous);
 9e4:	a1 04 00 00 00       	mov    0x4,%eax
 9e9:	89 c2                	mov    %eax,%edx
 9eb:	a1 10 00 00 00       	mov    0x10,%eax
 9f0:	01 d0                	add    %edx,%eax
 9f2:	83 ec 04             	sub    $0x4,%esp
 9f5:	ff 75 dc             	pushl  -0x24(%ebp)
 9f8:	50                   	push   %eax
 9f9:	ff 75 c8             	pushl  -0x38(%ebp)
 9fc:	e8 fc ff ff ff       	call   9fd <kmalloc_imp+0x646>
 a01:	83 c4 10             	add    $0x10,%esp
 a04:	89 45 c4             	mov    %eax,-0x3c(%ebp)

	if (!success)
 a07:	83 7d c4 00          	cmpl   $0x0,-0x3c(%ebp)
 a0b:	75 17                	jne    a24 <kmalloc_imp+0x66d>
	{
		printf("\nError5");
 a0d:	83 ec 0c             	sub    $0xc,%esp
 a10:	68 bf 01 00 00       	push   $0x1bf
 a15:	e8 fc ff ff ff       	call   a16 <kmalloc_imp+0x65f>
 a1a:	83 c4 10             	add    $0x10,%esp
		return (0);
 a1d:	b8 00 00 00 00       	mov    $0x0,%eax
 a22:	eb 17                	jmp    a3b <kmalloc_imp+0x684>
	}

	asm volatile("xchgw %bx, %bx");
 a24:	66 87 db             	xchg   %bx,%bx

	// Now there should be a region that is large enough
	return kmalloc_imp(size, alignment, comment);
 a27:	83 ec 04             	sub    $0x4,%esp
 a2a:	ff 75 10             	pushl  0x10(%ebp)
 a2d:	ff 75 0c             	pushl  0xc(%ebp)
 a30:	ff 75 08             	pushl  0x8(%ebp)
 a33:	e8 fc ff ff ff       	call   a34 <kmalloc_imp+0x67d>
 a38:	83 c4 10             	add    $0x10,%esp
}
 a3b:	8d 65 f8             	lea    -0x8(%ebp),%esp
 a3e:	5b                   	pop    %ebx
 a3f:	5e                   	pop    %esi
 a40:	5d                   	pop    %ebp
 a41:	c3                   	ret    

00000a42 <kernel_malloc>:

void* kernel_malloc(size_t size){
 a42:	55                   	push   %ebp
 a43:	89 e5                	mov    %esp,%ebp
 a45:	83 ec 08             	sub    $0x8,%esp
	return kmalloc_imp(size, 0, "None");
 a48:	83 ec 04             	sub    $0x4,%esp
 a4b:	68 c7 01 00 00       	push   $0x1c7
 a50:	6a 00                	push   $0x0
 a52:	ff 75 08             	pushl  0x8(%ebp)
 a55:	e8 fc ff ff ff       	call   a56 <kernel_malloc+0x14>
 a5a:	83 c4 10             	add    $0x10,%esp
}
 a5d:	c9                   	leave  
 a5e:	c3                   	ret    

00000a5f <kernel_malloc_a>:

void* kernel_malloc_a(size_t size, uint32_t alignment){
 a5f:	55                   	push   %ebp
 a60:	89 e5                	mov    %esp,%ebp
 a62:	83 ec 08             	sub    $0x8,%esp
	return kmalloc_imp(size, alignment, "None");
 a65:	83 ec 04             	sub    $0x4,%esp
 a68:	68 c7 01 00 00       	push   $0x1c7
 a6d:	ff 75 0c             	pushl  0xc(%ebp)
 a70:	ff 75 08             	pushl  0x8(%ebp)
 a73:	e8 fc ff ff ff       	call   a74 <kernel_malloc_a+0x15>
 a78:	83 c4 10             	add    $0x10,%esp
}
 a7b:	c9                   	leave  
 a7c:	c3                   	ret    

00000a7d <kernel_malloc_c>:

void* kernel_malloc_c(size_t size, const char* comment){
 a7d:	55                   	push   %ebp
 a7e:	89 e5                	mov    %esp,%ebp
 a80:	83 ec 08             	sub    $0x8,%esp
	return kmalloc_imp(size, 0, comment);
 a83:	83 ec 04             	sub    $0x4,%esp
 a86:	ff 75 0c             	pushl  0xc(%ebp)
 a89:	6a 00                	push   $0x0
 a8b:	ff 75 08             	pushl  0x8(%ebp)
 a8e:	e8 fc ff ff ff       	call   a8f <kernel_malloc_c+0x12>
 a93:	83 c4 10             	add    $0x10,%esp
}
 a96:	c9                   	leave  
 a97:	c3                   	ret    

00000a98 <kernel_malloc_ac>:

void* kernel_malloc_ac(size_t size, uint32_t alignment, const char* comment){
 a98:	55                   	push   %ebp
 a99:	89 e5                	mov    %esp,%ebp
 a9b:	83 ec 08             	sub    $0x8,%esp
	return kmalloc_imp(size, alignment, comment);
 a9e:	83 ec 04             	sub    $0x4,%esp
 aa1:	ff 75 10             	pushl  0x10(%ebp)
 aa4:	ff 75 0c             	pushl  0xc(%ebp)
 aa7:	ff 75 08             	pushl  0x8(%ebp)
 aaa:	e8 fc ff ff ff       	call   aab <kernel_malloc_ac+0x13>
 aaf:	83 c4 10             	add    $0x10,%esp
}
 ab2:	c9                   	leave  
 ab3:	c3                   	ret    

00000ab4 <kernel_free>:

void kernel_free(void* addr)
{
 ab4:	55                   	push   %ebp
 ab5:	89 e5                	mov    %esp,%ebp
 ab7:	56                   	push   %esi
 ab8:	53                   	push   %ebx
 ab9:	83 ec 10             	sub    $0x10,%esp
	if (addr == 0)
 abc:	83 7d 08 00          	cmpl   $0x0,0x8(%ebp)
 ac0:	0f 84 8b 02 00 00    	je     d51 <kernel_free+0x29d>
	{
		return;
	}

	// Walk the regions and find the correct one
	uint8_t* regionAddress = (uint8_t*)HEAP_START;
 ac6:	a1 04 00 00 00       	mov    0x4,%eax
 acb:	89 45 f4             	mov    %eax,-0xc(%ebp)
	for (uint32_t i = 0; i < regionCount; i++)
 ace:	c7 45 f0 00 00 00 00 	movl   $0x0,-0x10(%ebp)
 ad5:	e9 67 02 00 00       	jmp    d41 <kernel_free+0x28d>
	{
		if (regionAddress == addr && regions[i].reserved)
 ada:	8b 45 f4             	mov    -0xc(%ebp),%eax
 add:	3b 45 08             	cmp    0x8(%ebp),%eax
 ae0:	0f 85 3c 02 00 00    	jne    d22 <kernel_free+0x26e>
 ae6:	8b 15 00 00 00 00    	mov    0x0,%edx
 aec:	8b 45 f0             	mov    -0x10(%ebp),%eax
 aef:	01 c0                	add    %eax,%eax
 af1:	89 c1                	mov    %eax,%ecx
 af3:	c1 e1 04             	shl    $0x4,%ecx
 af6:	29 c1                	sub    %eax,%ecx
 af8:	89 c8                	mov    %ecx,%eax
 afa:	01 d0                	add    %edx,%eax
 afc:	0f b6 40 08          	movzbl 0x8(%eax),%eax
 b00:	84 c0                	test   %al,%al
 b02:	0f 84 1a 02 00 00    	je     d22 <kernel_free+0x26e>
		{
			regions[i].number = 0;
 b08:	8b 15 00 00 00 00    	mov    0x0,%edx
 b0e:	8b 45 f0             	mov    -0x10(%ebp),%eax
 b11:	01 c0                	add    %eax,%eax
 b13:	89 c1                	mov    %eax,%ecx
 b15:	c1 e1 04             	shl    $0x4,%ecx
 b18:	29 c1                	sub    %eax,%ecx
 b1a:	89 c8                	mov    %ecx,%eax
 b1c:	01 d0                	add    %edx,%eax
 b1e:	c7 40 04 00 00 00 00 	movl   $0x0,0x4(%eax)
			regions[i].reserved = 0; // free the region
 b25:	8b 15 00 00 00 00    	mov    0x0,%edx
 b2b:	8b 45 f0             	mov    -0x10(%ebp),%eax
 b2e:	01 c0                	add    %eax,%eax
 b30:	89 c1                	mov    %eax,%ecx
 b32:	c1 e1 04             	shl    $0x4,%ecx
 b35:	29 c1                	sub    %eax,%ecx
 b37:	89 c8                	mov    %ecx,%eax
 b39:	01 d0                	add    %edx,%eax
 b3b:	c6 40 08 00          	movb   $0x0,0x8(%eax)

										 // Check for a merge with the next region
			if ((i + 1 < regionCount) && !regions[i + 1].reserved)
 b3f:	8b 45 f0             	mov    -0x10(%ebp),%eax
 b42:	8d 50 01             	lea    0x1(%eax),%edx
 b45:	a1 04 00 00 00       	mov    0x4,%eax
 b4a:	39 c2                	cmp    %eax,%edx
 b4c:	0f 83 d5 00 00 00    	jae    c27 <kernel_free+0x173>
 b52:	8b 15 00 00 00 00    	mov    0x0,%edx
 b58:	8b 45 f0             	mov    -0x10(%ebp),%eax
 b5b:	83 c0 01             	add    $0x1,%eax
 b5e:	01 c0                	add    %eax,%eax
 b60:	89 c1                	mov    %eax,%ecx
 b62:	c1 e1 04             	shl    $0x4,%ecx
 b65:	29 c1                	sub    %eax,%ecx
 b67:	89 c8                	mov    %ecx,%eax
 b69:	01 d0                	add    %edx,%eax
 b6b:	0f b6 40 08          	movzbl 0x8(%eax),%eax
 b6f:	84 c0                	test   %al,%al
 b71:	0f 85 b0 00 00 00    	jne    c27 <kernel_free+0x173>
			{
				// Adjust the size of the now free region
				regions[i].size += regions[i + 1].size; // merge
 b77:	8b 15 00 00 00 00    	mov    0x0,%edx
 b7d:	8b 45 f0             	mov    -0x10(%ebp),%eax
 b80:	01 c0                	add    %eax,%eax
 b82:	89 c1                	mov    %eax,%ecx
 b84:	c1 e1 04             	shl    $0x4,%ecx
 b87:	29 c1                	sub    %eax,%ecx
 b89:	89 c8                	mov    %ecx,%eax
 b8b:	01 c2                	add    %eax,%edx
 b8d:	8b 0d 00 00 00 00    	mov    0x0,%ecx
 b93:	8b 45 f0             	mov    -0x10(%ebp),%eax
 b96:	01 c0                	add    %eax,%eax
 b98:	89 c3                	mov    %eax,%ebx
 b9a:	c1 e3 04             	shl    $0x4,%ebx
 b9d:	29 c3                	sub    %eax,%ebx
 b9f:	89 d8                	mov    %ebx,%eax
 ba1:	01 c8                	add    %ecx,%eax
 ba3:	8b 08                	mov    (%eax),%ecx
 ba5:	8b 1d 00 00 00 00    	mov    0x0,%ebx
 bab:	8b 45 f0             	mov    -0x10(%ebp),%eax
 bae:	83 c0 01             	add    $0x1,%eax
 bb1:	01 c0                	add    %eax,%eax
 bb3:	89 c6                	mov    %eax,%esi
 bb5:	c1 e6 04             	shl    $0x4,%esi
 bb8:	29 c6                	sub    %eax,%esi
 bba:	89 f0                	mov    %esi,%eax
 bbc:	01 d8                	add    %ebx,%eax
 bbe:	8b 00                	mov    (%eax),%eax
 bc0:	01 c8                	add    %ecx,%eax
 bc2:	89 02                	mov    %eax,(%edx)

														// Move all following regions back by one
				memmove(regions + i + 1, regions + i + 2, (regionCount - 2 - i)*sizeof(region_t));
 bc4:	a1 04 00 00 00       	mov    0x4,%eax
 bc9:	2b 45 f0             	sub    -0x10(%ebp),%eax
 bcc:	01 c0                	add    %eax,%eax
 bce:	89 c2                	mov    %eax,%edx
 bd0:	c1 e2 04             	shl    $0x4,%edx
 bd3:	29 c2                	sub    %eax,%edx
 bd5:	89 d0                	mov    %edx,%eax
 bd7:	8d 48 c4             	lea    -0x3c(%eax),%ecx
 bda:	8b 15 00 00 00 00    	mov    0x0,%edx
 be0:	8b 45 f0             	mov    -0x10(%ebp),%eax
 be3:	01 c0                	add    %eax,%eax
 be5:	89 c3                	mov    %eax,%ebx
 be7:	c1 e3 04             	shl    $0x4,%ebx
 bea:	29 c3                	sub    %eax,%ebx
 bec:	89 d8                	mov    %ebx,%eax
 bee:	83 c0 3c             	add    $0x3c,%eax
 bf1:	01 c2                	add    %eax,%edx
 bf3:	8b 1d 00 00 00 00    	mov    0x0,%ebx
 bf9:	8b 45 f0             	mov    -0x10(%ebp),%eax
 bfc:	83 c0 01             	add    $0x1,%eax
 bff:	01 c0                	add    %eax,%eax
 c01:	89 c6                	mov    %eax,%esi
 c03:	c1 e6 04             	shl    $0x4,%esi
 c06:	29 c6                	sub    %eax,%esi
 c08:	89 f0                	mov    %esi,%eax
 c0a:	01 d8                	add    %ebx,%eax
 c0c:	83 ec 04             	sub    $0x4,%esp
 c0f:	51                   	push   %ecx
 c10:	52                   	push   %edx
 c11:	50                   	push   %eax
 c12:	e8 fc ff ff ff       	call   c13 <kernel_free+0x15f>
 c17:	83 c4 10             	add    $0x10,%esp

				--regionCount;
 c1a:	a1 04 00 00 00       	mov    0x4,%eax
 c1f:	83 e8 01             	sub    $0x1,%eax
 c22:	a3 04 00 00 00       	mov    %eax,0x4
			}

			// Check for a merge with the previous region
			if (i > 0 && !regions[i - 1].reserved)
 c27:	83 7d f0 00          	cmpl   $0x0,-0x10(%ebp)
 c2b:	0f 84 d5 00 00 00    	je     d06 <kernel_free+0x252>
 c31:	8b 15 00 00 00 00    	mov    0x0,%edx
 c37:	8b 45 f0             	mov    -0x10(%ebp),%eax
 c3a:	01 c0                	add    %eax,%eax
 c3c:	89 c1                	mov    %eax,%ecx
 c3e:	c1 e1 04             	shl    $0x4,%ecx
 c41:	29 c1                	sub    %eax,%ecx
 c43:	89 c8                	mov    %ecx,%eax
 c45:	83 e8 1e             	sub    $0x1e,%eax
 c48:	01 d0                	add    %edx,%eax
 c4a:	0f b6 40 08          	movzbl 0x8(%eax),%eax
 c4e:	84 c0                	test   %al,%al
 c50:	0f 85 b0 00 00 00    	jne    d06 <kernel_free+0x252>
			{
				// Adjust the size of the previous region
				regions[i - 1].size += regions[i].size; // merge
 c56:	8b 15 00 00 00 00    	mov    0x0,%edx
 c5c:	8b 45 f0             	mov    -0x10(%ebp),%eax
 c5f:	01 c0                	add    %eax,%eax
 c61:	89 c1                	mov    %eax,%ecx
 c63:	c1 e1 04             	shl    $0x4,%ecx
 c66:	29 c1                	sub    %eax,%ecx
 c68:	89 c8                	mov    %ecx,%eax
 c6a:	83 e8 1e             	sub    $0x1e,%eax
 c6d:	01 c2                	add    %eax,%edx
 c6f:	8b 0d 00 00 00 00    	mov    0x0,%ecx
 c75:	8b 45 f0             	mov    -0x10(%ebp),%eax
 c78:	01 c0                	add    %eax,%eax
 c7a:	89 c3                	mov    %eax,%ebx
 c7c:	c1 e3 04             	shl    $0x4,%ebx
 c7f:	29 c3                	sub    %eax,%ebx
 c81:	89 d8                	mov    %ebx,%eax
 c83:	83 e8 1e             	sub    $0x1e,%eax
 c86:	01 c8                	add    %ecx,%eax
 c88:	8b 08                	mov    (%eax),%ecx
 c8a:	8b 1d 00 00 00 00    	mov    0x0,%ebx
 c90:	8b 45 f0             	mov    -0x10(%ebp),%eax
 c93:	01 c0                	add    %eax,%eax
 c95:	89 c6                	mov    %eax,%esi
 c97:	c1 e6 04             	shl    $0x4,%esi
 c9a:	29 c6                	sub    %eax,%esi
 c9c:	89 f0                	mov    %esi,%eax
 c9e:	01 d8                	add    %ebx,%eax
 ca0:	8b 00                	mov    (%eax),%eax
 ca2:	01 c8                	add    %ecx,%eax
 ca4:	89 02                	mov    %eax,(%edx)

														// Move all following regions back by one
				memmove(regions + i, regions + i + 1, (regionCount - 1 - i)*sizeof(region_t));
 ca6:	a1 04 00 00 00       	mov    0x4,%eax
 cab:	2b 45 f0             	sub    -0x10(%ebp),%eax
 cae:	01 c0                	add    %eax,%eax
 cb0:	89 c2                	mov    %eax,%edx
 cb2:	c1 e2 04             	shl    $0x4,%edx
 cb5:	29 c2                	sub    %eax,%edx
 cb7:	89 d0                	mov    %edx,%eax
 cb9:	8d 48 e2             	lea    -0x1e(%eax),%ecx
 cbc:	8b 15 00 00 00 00    	mov    0x0,%edx
 cc2:	8b 45 f0             	mov    -0x10(%ebp),%eax
 cc5:	83 c0 01             	add    $0x1,%eax
 cc8:	01 c0                	add    %eax,%eax
 cca:	89 c3                	mov    %eax,%ebx
 ccc:	c1 e3 04             	shl    $0x4,%ebx
 ccf:	29 c3                	sub    %eax,%ebx
 cd1:	89 d8                	mov    %ebx,%eax
 cd3:	01 c2                	add    %eax,%edx
 cd5:	8b 1d 00 00 00 00    	mov    0x0,%ebx
 cdb:	8b 45 f0             	mov    -0x10(%ebp),%eax
 cde:	01 c0                	add    %eax,%eax
 ce0:	89 c6                	mov    %eax,%esi
 ce2:	c1 e6 04             	shl    $0x4,%esi
 ce5:	29 c6                	sub    %eax,%esi
 ce7:	89 f0                	mov    %esi,%eax
 ce9:	01 d8                	add    %ebx,%eax
 ceb:	83 ec 04             	sub    $0x4,%esp
 cee:	51                   	push   %ecx
 cef:	52                   	push   %edx
 cf0:	50                   	push   %eax
 cf1:	e8 fc ff ff ff       	call   cf2 <kernel_free+0x23e>
 cf6:	83 c4 10             	add    $0x10,%esp

				--regionCount;
 cf9:	a1 04 00 00 00       	mov    0x4,%eax
 cfe:	83 e8 01             	sub    $0x1,%eax
 d01:	a3 04 00 00 00       	mov    %eax,0x4
			}

			if (i < firstFreeRegion)
 d06:	a1 0c 00 00 00       	mov    0xc,%eax
 d0b:	39 45 f0             	cmp    %eax,-0x10(%ebp)
 d0e:	73 44                	jae    d54 <kernel_free+0x2a0>
			{
				firstFreeRegion = i;
 d10:	8b 45 f0             	mov    -0x10(%ebp),%eax
 d13:	a3 0c 00 00 00       	mov    %eax,0xc
				firstFreeAddr = regionAddress;
 d18:	8b 45 f4             	mov    -0xc(%ebp),%eax
 d1b:	a3 00 00 00 00       	mov    %eax,0x0
			}
			return;
 d20:	eb 32                	jmp    d54 <kernel_free+0x2a0>
		}

		regionAddress += regions[i].size;
 d22:	8b 15 00 00 00 00    	mov    0x0,%edx
 d28:	8b 45 f0             	mov    -0x10(%ebp),%eax
 d2b:	01 c0                	add    %eax,%eax
 d2d:	89 c1                	mov    %eax,%ecx
 d2f:	c1 e1 04             	shl    $0x4,%ecx
 d32:	29 c1                	sub    %eax,%ecx
 d34:	89 c8                	mov    %ecx,%eax
 d36:	01 d0                	add    %edx,%eax
 d38:	8b 00                	mov    (%eax),%eax
 d3a:	01 45 f4             	add    %eax,-0xc(%ebp)
		return;
	}

	// Walk the regions and find the correct one
	uint8_t* regionAddress = (uint8_t*)HEAP_START;
	for (uint32_t i = 0; i < regionCount; i++)
 d3d:	83 45 f0 01          	addl   $0x1,-0x10(%ebp)
 d41:	a1 04 00 00 00       	mov    0x4,%eax
 d46:	39 45 f0             	cmp    %eax,-0x10(%ebp)
 d49:	0f 82 8b fd ff ff    	jb     ada <kernel_free+0x26>
 d4f:	eb 04                	jmp    d55 <kernel_free+0x2a1>

void kernel_free(void* addr)
{
	if (addr == 0)
	{
		return;
 d51:	90                   	nop
 d52:	eb 01                	jmp    d55 <kernel_free+0x2a1>
			if (i < firstFreeRegion)
			{
				firstFreeRegion = i;
				firstFreeAddr = regionAddress;
			}
			return;
 d54:	90                   	nop
		}

		regionAddress += regions[i].size;
	}
 d55:	8d 65 f8             	lea    -0x8(%ebp),%esp
 d58:	5b                   	pop    %ebx
 d59:	5e                   	pop    %esi
 d5a:	5d                   	pop    %ebp
 d5b:	c3                   	ret    

keyboard.o:     file format elf32-i386


Disassembly of section .text:

00000000 <keyboard_ctrl_read_status>:

//===================================================================
// Keyboard private functions
//===================================================================

uint8_t keyboard_ctrl_read_status(){
   0:	55                   	push   %ebp
   1:	89 e5                	mov    %esp,%ebp
   3:	83 ec 08             	sub    $0x8,%esp

	// Simply read status register
	return inportb(KEYBOARD_CTRL_STATS_REG);
   6:	83 ec 0c             	sub    $0xc,%esp
   9:	6a 64                	push   $0x64
   b:	e8 fc ff ff ff       	call   c <keyboard_ctrl_read_status+0xc>
  10:	83 c4 10             	add    $0x10,%esp
}
  13:	c9                   	leave  
  14:	c3                   	ret    

00000015 <keyboard_ctrl_send_command>:

void keyboard_ctrl_send_command(uint8_t cmd){
  15:	55                   	push   %ebp
  16:	89 e5                	mov    %esp,%ebp
  18:	83 ec 18             	sub    $0x18,%esp
  1b:	8b 45 08             	mov    0x8(%ebp),%eax
  1e:	88 45 f4             	mov    %al,-0xc(%ebp)

	// Wait until controller is ready to accept command.
	while(1){
		if((keyboard_ctrl_read_status() & KEYBOARD_CTRL_STATS_MASK_IN_BUF) == 0)
  21:	e8 fc ff ff ff       	call   22 <keyboard_ctrl_send_command+0xd>
  26:	0f b6 c0             	movzbl %al,%eax
  29:	83 e0 02             	and    $0x2,%eax
  2c:	85 c0                	test   %eax,%eax
  2e:	74 02                	je     32 <keyboard_ctrl_send_command+0x1d>
			break;
	}
  30:	eb ef                	jmp    21 <keyboard_ctrl_send_command+0xc>
void keyboard_ctrl_send_command(uint8_t cmd){

	// Wait until controller is ready to accept command.
	while(1){
		if((keyboard_ctrl_read_status() & KEYBOARD_CTRL_STATS_MASK_IN_BUF) == 0)
			break;
  32:	90                   	nop
	}

	// Send command to controller command register
	outportb(KEYBOARD_CTRL_CMD_REG, cmd);
  33:	0f b6 45 f4          	movzbl -0xc(%ebp),%eax
  37:	83 ec 08             	sub    $0x8,%esp
  3a:	50                   	push   %eax
  3b:	6a 64                	push   $0x64
  3d:	e8 fc ff ff ff       	call   3e <keyboard_ctrl_send_command+0x29>
  42:	83 c4 10             	add    $0x10,%esp
}
  45:	90                   	nop
  46:	c9                   	leave  
  47:	c3                   	ret    

00000048 <keyboard_enc_read_buffer>:

uint8_t keyboard_enc_read_buffer(){
  48:	55                   	push   %ebp
  49:	89 e5                	mov    %esp,%ebp
  4b:	83 ec 08             	sub    $0x8,%esp

	// Simply read encoder buffer
	inportb(KEYBOARD_ENC_INPUT_BUF);
  4e:	83 ec 0c             	sub    $0xc,%esp
  51:	6a 60                	push   $0x60
  53:	e8 fc ff ff ff       	call   54 <keyboard_enc_read_buffer+0xc>
  58:	83 c4 10             	add    $0x10,%esp
}
  5b:	90                   	nop
  5c:	c9                   	leave  
  5d:	c3                   	ret    

0000005e <keyboard_enc_send_command>:

void keyboard_enc_send_command(uint8_t cmd){
  5e:	55                   	push   %ebp
  5f:	89 e5                	mov    %esp,%ebp
  61:	83 ec 18             	sub    $0x18,%esp
  64:	8b 45 08             	mov    0x8(%ebp),%eax
  67:	88 45 f4             	mov    %al,-0xc(%ebp)

	// Wait until controller is ready to accept command.
	while(1){
		if((keyboard_ctrl_read_status() & KEYBOARD_CTRL_STATS_MASK_IN_BUF) == 0)
  6a:	e8 fc ff ff ff       	call   6b <keyboard_enc_send_command+0xd>
  6f:	0f b6 c0             	movzbl %al,%eax
  72:	83 e0 02             	and    $0x2,%eax
  75:	85 c0                	test   %eax,%eax
  77:	74 02                	je     7b <keyboard_enc_send_command+0x1d>
			break;
	}
  79:	eb ef                	jmp    6a <keyboard_enc_send_command+0xc>
void keyboard_enc_send_command(uint8_t cmd){

	// Wait until controller is ready to accept command.
	while(1){
		if((keyboard_ctrl_read_status() & KEYBOARD_CTRL_STATS_MASK_IN_BUF) == 0)
			break;
  7b:	90                   	nop
	}

	// Send command to encoder command register
	outportb(KEYBOARD_ENC_CMD_REG, cmd);
  7c:	0f b6 45 f4          	movzbl -0xc(%ebp),%eax
  80:	83 ec 08             	sub    $0x8,%esp
  83:	50                   	push   %eax
  84:	6a 60                	push   $0x60
  86:	e8 fc ff ff ff       	call   87 <keyboard_enc_send_command+0x29>
  8b:	83 c4 10             	add    $0x10,%esp
}
  8e:	90                   	nop
  8f:	c9                   	leave  
  90:	c3                   	ret    

00000091 <i86_keyboard_irq>:

void i86_keyboard_irq(){
  91:	55                   	push   %ebp
  92:	89 e5                	mov    %esp,%ebp
  94:	83 ec 18             	sub    $0x18,%esp

	asm volatile("add %esp, 12");
  97:	01 25 0c 00 00 00    	add    %esp,0xc
	asm volatile("pushal");
  9d:	60                   	pusha  
	asm volatile("cli");
  9e:	fa                   	cli    

	static int _extended = 0;

	int code = 0;
  9f:	c7 45 f4 00 00 00 00 	movl   $0x0,-0xc(%ebp)

	// Check if there is anything in output buffer
	if(keyboard_ctrl_read_status() & KEYBOARD_CTRL_STATS_MASK_OUT_BUF){
  a6:	e8 fc ff ff ff       	call   a7 <i86_keyboard_irq+0x16>
  ab:	0f b6 c0             	movzbl %al,%eax
  ae:	83 e0 01             	and    $0x1,%eax
  b1:	85 c0                	test   %eax,%eax
  b3:	0f 84 eb 02 00 00    	je     3a4 <i86_keyboard_irq+0x313>

		// Read scan code
		code = keyboard_enc_read_buffer();
  b9:	e8 fc ff ff ff       	call   ba <i86_keyboard_irq+0x29>
  be:	0f b6 c0             	movzbl %al,%eax
  c1:	89 45 f4             	mov    %eax,-0xc(%ebp)

		if(code == 0xE0 || code == 0xE1){
  c4:	81 7d f4 e0 00 00 00 	cmpl   $0xe0,-0xc(%ebp)
  cb:	74 09                	je     d6 <i86_keyboard_irq+0x45>
  cd:	81 7d f4 e1 00 00 00 	cmpl   $0xe1,-0xc(%ebp)
  d4:	75 0f                	jne    e5 <i86_keyboard_irq+0x54>

			_extended = 1;
  d6:	c7 05 08 00 00 00 01 	movl   $0x1,0x8
  dd:	00 00 00 
  e0:	e9 75 02 00 00       	jmp    35a <i86_keyboard_irq+0x2c9>

		} else {

			_extended = 0;
  e5:	c7 05 08 00 00 00 00 	movl   $0x0,0x8
  ec:	00 00 00 

			// Check if key is a break code(key up code)
			if(code & 0x80){
  ef:	8b 45 f4             	mov    -0xc(%ebp),%eax
  f2:	25 80 00 00 00       	and    $0x80,%eax
  f7:	85 c0                	test   %eax,%eax
  f9:	74 68                	je     163 <i86_keyboard_irq+0xd2>
				code -= 0x80;
  fb:	83 45 f4 80          	addl   $0xffffff80,-0xc(%ebp)

				int key = _keyboard_scancode_std[code];
  ff:	8b 45 f4             	mov    -0xc(%ebp),%eax
 102:	8b 04 85 00 00 00 00 	mov    0x0(,%eax,4),%eax
 109:	89 45 f0             	mov    %eax,-0x10(%ebp)

				// Check if key was a special key
				switch(key){
 10c:	8b 45 f0             	mov    -0x10(%ebp),%eax
 10f:	2d 02 40 00 00       	sub    $0x4002,%eax
 114:	83 f8 06             	cmp    $0x6,%eax
 117:	0f 87 3d 02 00 00    	ja     35a <i86_keyboard_irq+0x2c9>
 11d:	8b 04 85 04 00 00 00 	mov    0x4(,%eax,4),%eax
 124:	ff e0                	jmp    *%eax

					case KEY_LCTRL:
					case KEY_RCTRL:
						_status.ctrl = 0;
 126:	0f b6 05 02 00 00 00 	movzbl 0x2,%eax
 12d:	83 e0 df             	and    $0xffffffdf,%eax
 130:	a2 02 00 00 00       	mov    %al,0x2
						break;
 135:	e9 20 02 00 00       	jmp    35a <i86_keyboard_irq+0x2c9>

					case KEY_LSHIFT:
					case KEY_RSHIFT:
						_status.shift = 0;
 13a:	0f b6 05 02 00 00 00 	movzbl 0x2,%eax
 141:	83 e0 f7             	and    $0xfffffff7,%eax
 144:	a2 02 00 00 00       	mov    %al,0x2
						break;
 149:	e9 0c 02 00 00       	jmp    35a <i86_keyboard_irq+0x2c9>

					case KEY_LALT:
					case KEY_RALT:
						_status.alt = 0;
 14e:	0f b6 05 02 00 00 00 	movzbl 0x2,%eax
 155:	83 e0 ef             	and    $0xffffffef,%eax
 158:	a2 02 00 00 00       	mov    %al,0x2
						break;
 15d:	90                   	nop
 15e:	e9 f7 01 00 00       	jmp    35a <i86_keyboard_irq+0x2c9>
				}
			} else { // Make code (Key down code)

				_scancode = code;
 163:	8b 45 f4             	mov    -0xc(%ebp),%eax
 166:	a2 00 00 00 00       	mov    %al,0x0

				int key = _keyboard_scancode_std[code];
 16b:	8b 45 f4             	mov    -0xc(%ebp),%eax
 16e:	8b 04 85 00 00 00 00 	mov    0x0(,%eax,4),%eax
 175:	89 45 ec             	mov    %eax,-0x14(%ebp)

				switch(key){
 178:	8b 45 ec             	mov    -0x14(%ebp),%eax
 17b:	3d 04 40 00 00       	cmp    $0x4004,%eax
 180:	0f 84 95 00 00 00    	je     21b <i86_keyboard_irq+0x18a>
 186:	3d 04 40 00 00       	cmp    $0x4004,%eax
 18b:	7f 35                	jg     1c2 <i86_keyboard_irq+0x131>
 18d:	3d 01 40 00 00       	cmp    $0x4001,%eax
 192:	0f 84 97 00 00 00    	je     22f <i86_keyboard_irq+0x19e>
 198:	3d 01 40 00 00       	cmp    $0x4001,%eax
 19d:	7f 10                	jg     1af <i86_keyboard_irq+0x11e>
 19f:	3d 0f 30 00 00       	cmp    $0x300f,%eax
 1a4:	0f 84 ee 00 00 00    	je     298 <i86_keyboard_irq+0x207>
 1aa:	e9 ab 01 00 00       	jmp    35a <i86_keyboard_irq+0x2c9>
 1af:	3d 02 40 00 00       	cmp    $0x4002,%eax
 1b4:	74 51                	je     207 <i86_keyboard_irq+0x176>
 1b6:	3d 03 40 00 00       	cmp    $0x4003,%eax
 1bb:	74 36                	je     1f3 <i86_keyboard_irq+0x162>
 1bd:	e9 98 01 00 00       	jmp    35a <i86_keyboard_irq+0x2c9>
 1c2:	3d 07 40 00 00       	cmp    $0x4007,%eax
 1c7:	74 2a                	je     1f3 <i86_keyboard_irq+0x162>
 1c9:	3d 07 40 00 00       	cmp    $0x4007,%eax
 1ce:	7f 0c                	jg     1dc <i86_keyboard_irq+0x14b>
 1d0:	3d 06 40 00 00       	cmp    $0x4006,%eax
 1d5:	74 30                	je     207 <i86_keyboard_irq+0x176>
 1d7:	e9 7e 01 00 00       	jmp    35a <i86_keyboard_irq+0x2c9>
 1dc:	3d 08 40 00 00       	cmp    $0x4008,%eax
 1e1:	74 38                	je     21b <i86_keyboard_irq+0x18a>
 1e3:	3d 10 40 00 00       	cmp    $0x4010,%eax
 1e8:	0f 84 0b 01 00 00    	je     2f9 <i86_keyboard_irq+0x268>
 1ee:	e9 67 01 00 00       	jmp    35a <i86_keyboard_irq+0x2c9>

					case KEY_LCTRL:
					case KEY_RCTRL:
						_status.ctrl = 1;
 1f3:	0f b6 05 02 00 00 00 	movzbl 0x2,%eax
 1fa:	83 c8 20             	or     $0x20,%eax
 1fd:	a2 02 00 00 00       	mov    %al,0x2
						break;
 202:	e9 53 01 00 00       	jmp    35a <i86_keyboard_irq+0x2c9>

					case KEY_LSHIFT:
					case KEY_RSHIFT:
						_status.shift = 1;
 207:	0f b6 05 02 00 00 00 	movzbl 0x2,%eax
 20e:	83 c8 08             	or     $0x8,%eax
 211:	a2 02 00 00 00       	mov    %al,0x2
						break;
 216:	e9 3f 01 00 00       	jmp    35a <i86_keyboard_irq+0x2c9>

					case KEY_LALT:
					case KEY_RALT:
						_status.alt = 1;
 21b:	0f b6 05 02 00 00 00 	movzbl 0x2,%eax
 222:	83 c8 10             	or     $0x10,%eax
 225:	a2 02 00 00 00       	mov    %al,0x2
						break;
 22a:	e9 2b 01 00 00       	jmp    35a <i86_keyboard_irq+0x2c9>

					case KEY_CAPSLOCK:
						TOGGLE(_status.caps_lock);
 22f:	0f b6 05 02 00 00 00 	movzbl 0x2,%eax
 236:	83 e0 04             	and    $0x4,%eax
 239:	84 c0                	test   %al,%al
 23b:	0f 94 c0             	sete   %al
 23e:	83 e0 01             	and    $0x1,%eax
 241:	8d 14 85 00 00 00 00 	lea    0x0(,%eax,4),%edx
 248:	0f b6 05 02 00 00 00 	movzbl 0x2,%eax
 24f:	83 e0 fb             	and    $0xfffffffb,%eax
 252:	09 d0                	or     %edx,%eax
 254:	a2 02 00 00 00       	mov    %al,0x2
						keyboard_set_leds(
							_status.num_lock, 
							_status.caps_lock,
							_status.scroll_lock);
 259:	0f b6 05 02 00 00 00 	movzbl 0x2,%eax
 260:	d0 e8                	shr    %al
 262:	83 e0 01             	and    $0x1,%eax
						_status.alt = 1;
						break;

					case KEY_CAPSLOCK:
						TOGGLE(_status.caps_lock);
						keyboard_set_leds(
 265:	0f b6 c8             	movzbl %al,%ecx
							_status.num_lock, 
							_status.caps_lock,
 268:	0f b6 05 02 00 00 00 	movzbl 0x2,%eax
 26f:	c0 e8 02             	shr    $0x2,%al
 272:	83 e0 01             	and    $0x1,%eax
						_status.alt = 1;
						break;

					case KEY_CAPSLOCK:
						TOGGLE(_status.caps_lock);
						keyboard_set_leds(
 275:	0f b6 d0             	movzbl %al,%edx
							_status.num_lock, 
 278:	0f b6 05 02 00 00 00 	movzbl 0x2,%eax
 27f:	83 e0 01             	and    $0x1,%eax
						_status.alt = 1;
						break;

					case KEY_CAPSLOCK:
						TOGGLE(_status.caps_lock);
						keyboard_set_leds(
 282:	0f b6 c0             	movzbl %al,%eax
 285:	83 ec 04             	sub    $0x4,%esp
 288:	51                   	push   %ecx
 289:	52                   	push   %edx
 28a:	50                   	push   %eax
 28b:	e8 fc ff ff ff       	call   28c <i86_keyboard_irq+0x1fb>
 290:	83 c4 10             	add    $0x10,%esp
							_status.num_lock, 
							_status.caps_lock,
							_status.scroll_lock);
						break;
 293:	e9 c2 00 00 00       	jmp    35a <i86_keyboard_irq+0x2c9>

					case KEY_KP_NUMLOCK:
						TOGGLE(_status.num_lock);
 298:	0f b6 05 02 00 00 00 	movzbl 0x2,%eax
 29f:	83 e0 01             	and    $0x1,%eax
 2a2:	84 c0                	test   %al,%al
 2a4:	0f 94 c0             	sete   %al
 2a7:	83 e0 01             	and    $0x1,%eax
 2aa:	89 c2                	mov    %eax,%edx
 2ac:	0f b6 05 02 00 00 00 	movzbl 0x2,%eax
 2b3:	83 e0 fe             	and    $0xfffffffe,%eax
 2b6:	09 d0                	or     %edx,%eax
 2b8:	a2 02 00 00 00       	mov    %al,0x2
						keyboard_set_leds(
							_status.num_lock, 
							_status.caps_lock,
							_status.scroll_lock);
 2bd:	0f b6 05 02 00 00 00 	movzbl 0x2,%eax
 2c4:	d0 e8                	shr    %al
 2c6:	83 e0 01             	and    $0x1,%eax
							_status.scroll_lock);
						break;

					case KEY_KP_NUMLOCK:
						TOGGLE(_status.num_lock);
						keyboard_set_leds(
 2c9:	0f b6 c8             	movzbl %al,%ecx
							_status.num_lock, 
							_status.caps_lock,
 2cc:	0f b6 05 02 00 00 00 	movzbl 0x2,%eax
 2d3:	c0 e8 02             	shr    $0x2,%al
 2d6:	83 e0 01             	and    $0x1,%eax
							_status.scroll_lock);
						break;

					case KEY_KP_NUMLOCK:
						TOGGLE(_status.num_lock);
						keyboard_set_leds(
 2d9:	0f b6 d0             	movzbl %al,%edx
							_status.num_lock, 
 2dc:	0f b6 05 02 00 00 00 	movzbl 0x2,%eax
 2e3:	83 e0 01             	and    $0x1,%eax
							_status.scroll_lock);
						break;

					case KEY_KP_NUMLOCK:
						TOGGLE(_status.num_lock);
						keyboard_set_leds(
 2e6:	0f b6 c0             	movzbl %al,%eax
 2e9:	83 ec 04             	sub    $0x4,%esp
 2ec:	51                   	push   %ecx
 2ed:	52                   	push   %edx
 2ee:	50                   	push   %eax
 2ef:	e8 fc ff ff ff       	call   2f0 <i86_keyboard_irq+0x25f>
 2f4:	83 c4 10             	add    $0x10,%esp
							_status.num_lock, 
							_status.caps_lock,
							_status.scroll_lock);
						break;
 2f7:	eb 61                	jmp    35a <i86_keyboard_irq+0x2c9>

					case KEY_SCROLLLOCK:
						TOGGLE(_status.scroll_lock);
 2f9:	0f b6 05 02 00 00 00 	movzbl 0x2,%eax
 300:	83 e0 02             	and    $0x2,%eax
 303:	84 c0                	test   %al,%al
 305:	0f 94 c0             	sete   %al
 308:	83 e0 01             	and    $0x1,%eax
 30b:	8d 14 00             	lea    (%eax,%eax,1),%edx
 30e:	0f b6 05 02 00 00 00 	movzbl 0x2,%eax
 315:	83 e0 fd             	and    $0xfffffffd,%eax
 318:	09 d0                	or     %edx,%eax
 31a:	a2 02 00 00 00       	mov    %al,0x2
						keyboard_set_leds(
							_status.num_lock, 
							_status.caps_lock,
							_status.scroll_lock);
 31f:	0f b6 05 02 00 00 00 	movzbl 0x2,%eax
 326:	d0 e8                	shr    %al
 328:	83 e0 01             	and    $0x1,%eax
							_status.scroll_lock);
						break;

					case KEY_SCROLLLOCK:
						TOGGLE(_status.scroll_lock);
						keyboard_set_leds(
 32b:	0f b6 c8             	movzbl %al,%ecx
							_status.num_lock, 
							_status.caps_lock,
 32e:	0f b6 05 02 00 00 00 	movzbl 0x2,%eax
 335:	c0 e8 02             	shr    $0x2,%al
 338:	83 e0 01             	and    $0x1,%eax
							_status.scroll_lock);
						break;

					case KEY_SCROLLLOCK:
						TOGGLE(_status.scroll_lock);
						keyboard_set_leds(
 33b:	0f b6 d0             	movzbl %al,%edx
							_status.num_lock, 
 33e:	0f b6 05 02 00 00 00 	movzbl 0x2,%eax
 345:	83 e0 01             	and    $0x1,%eax
							_status.scroll_lock);
						break;

					case KEY_SCROLLLOCK:
						TOGGLE(_status.scroll_lock);
						keyboard_set_leds(
 348:	0f b6 c0             	movzbl %al,%eax
 34b:	83 ec 04             	sub    $0x4,%esp
 34e:	51                   	push   %ecx
 34f:	52                   	push   %edx
 350:	50                   	push   %eax
 351:	e8 fc ff ff ff       	call   352 <i86_keyboard_irq+0x2c1>
 356:	83 c4 10             	add    $0x10,%esp
							_status.num_lock, 
							_status.caps_lock,
							_status.scroll_lock);
						break;
 359:	90                   	nop
				}
			}
		}

		switch(code){
 35a:	8b 45 f4             	mov    -0xc(%ebp),%eax
 35d:	3d fd 00 00 00       	cmp    $0xfd,%eax
 362:	74 1f                	je     383 <i86_keyboard_irq+0x2f2>
 364:	3d fe 00 00 00       	cmp    $0xfe,%eax
 369:	74 29                	je     394 <i86_keyboard_irq+0x303>
 36b:	3d fc 00 00 00       	cmp    $0xfc,%eax
 370:	75 32                	jne    3a4 <i86_keyboard_irq+0x313>

			case KEYBOARD_ERR_BAT_FAILED:
				_status.bat_res = 0;
 372:	0f b6 05 02 00 00 00 	movzbl 0x2,%eax
 379:	83 e0 bf             	and    $0xffffffbf,%eax
 37c:	a2 02 00 00 00       	mov    %al,0x2
				break;
 381:	eb 21                	jmp    3a4 <i86_keyboard_irq+0x313>

			case KEYBOARD_ERR_DIAG_FAILED:
				_status.diag_res = 0;
 383:	0f b6 05 02 00 00 00 	movzbl 0x2,%eax
 38a:	83 e0 7f             	and    $0x7f,%eax
 38d:	a2 02 00 00 00       	mov    %al,0x2
				break;
 392:	eb 10                	jmp    3a4 <i86_keyboard_irq+0x313>

			case KEYBOARD_ERR_RESEND_CMD:
				_status.resend_res = 1;
 394:	0f b6 05 03 00 00 00 	movzbl 0x3,%eax
 39b:	83 c8 01             	or     $0x1,%eax
 39e:	a2 03 00 00 00       	mov    %al,0x3
				break;
 3a3:	90                   	nop
		}
	}

	interruptdone(0);
 3a4:	83 ec 0c             	sub    $0xc,%esp
 3a7:	6a 00                	push   $0x0
 3a9:	e8 fc ff ff ff       	call   3aa <i86_keyboard_irq+0x319>
 3ae:	83 c4 10             	add    $0x10,%esp

	asm volatile("sti");
 3b1:	fb                   	sti    
	__asm__("popal; leave; iret");
 3b2:	61                   	popa   
 3b3:	c9                   	leave  
 3b4:	cf                   	iret   
}
 3b5:	90                   	nop
 3b6:	c9                   	leave  
 3b7:	c3                   	ret    

000003b8 <keyboard_get_scroll_lock>:

//===================================================================
// Keyboard Interface functions
//===================================================================

int keyboard_get_scroll_lock(){
 3b8:	55                   	push   %ebp
 3b9:	89 e5                	mov    %esp,%ebp
	return _status.scroll_lock;
 3bb:	0f b6 05 02 00 00 00 	movzbl 0x2,%eax
 3c2:	d0 e8                	shr    %al
 3c4:	83 e0 01             	and    $0x1,%eax
 3c7:	0f b6 c0             	movzbl %al,%eax
}
 3ca:	5d                   	pop    %ebp
 3cb:	c3                   	ret    

000003cc <keyboard_get_numlock>:

int keyboard_get_numlock(){
 3cc:	55                   	push   %ebp
 3cd:	89 e5                	mov    %esp,%ebp
	return _status.num_lock;
 3cf:	0f b6 05 02 00 00 00 	movzbl 0x2,%eax
 3d6:	83 e0 01             	and    $0x1,%eax
 3d9:	0f b6 c0             	movzbl %al,%eax
}
 3dc:	5d                   	pop    %ebp
 3dd:	c3                   	ret    

000003de <keyboard_get_capslock>:

int keyboard_get_capslock(){
 3de:	55                   	push   %ebp
 3df:	89 e5                	mov    %esp,%ebp
	return _status.caps_lock;
 3e1:	0f b6 05 02 00 00 00 	movzbl 0x2,%eax
 3e8:	c0 e8 02             	shr    $0x2,%al
 3eb:	83 e0 01             	and    $0x1,%eax
 3ee:	0f b6 c0             	movzbl %al,%eax
}
 3f1:	5d                   	pop    %ebp
 3f2:	c3                   	ret    

000003f3 <keyboard_get_alt>:

int keyboard_get_alt(){
 3f3:	55                   	push   %ebp
 3f4:	89 e5                	mov    %esp,%ebp
	return _status.alt;
 3f6:	0f b6 05 02 00 00 00 	movzbl 0x2,%eax
 3fd:	c0 e8 04             	shr    $0x4,%al
 400:	83 e0 01             	and    $0x1,%eax
 403:	0f b6 c0             	movzbl %al,%eax
}
 406:	5d                   	pop    %ebp
 407:	c3                   	ret    

00000408 <keyboard_get_ctrl>:

int keyboard_get_ctrl(){
 408:	55                   	push   %ebp
 409:	89 e5                	mov    %esp,%ebp
	return _status.ctrl;
 40b:	0f b6 05 02 00 00 00 	movzbl 0x2,%eax
 412:	c0 e8 05             	shr    $0x5,%al
 415:	83 e0 01             	and    $0x1,%eax
 418:	0f b6 c0             	movzbl %al,%eax
}
 41b:	5d                   	pop    %ebp
 41c:	c3                   	ret    

0000041d <keyboard_get_shift>:

int keyboard_get_shift(){
 41d:	55                   	push   %ebp
 41e:	89 e5                	mov    %esp,%ebp
	return  _status.shift;
 420:	0f b6 05 02 00 00 00 	movzbl 0x2,%eax
 427:	c0 e8 03             	shr    $0x3,%al
 42a:	83 e0 01             	and    $0x1,%eax
 42d:	0f b6 c0             	movzbl %al,%eax
}
 430:	5d                   	pop    %ebp
 431:	c3                   	ret    

00000432 <keyboard_ignore_resend>:

void keyboard_ignore_resend(){
 432:	55                   	push   %ebp
 433:	89 e5                	mov    %esp,%ebp
	_status.resend_res = 0;
 435:	0f b6 05 03 00 00 00 	movzbl 0x3,%eax
 43c:	83 e0 fe             	and    $0xfffffffe,%eax
 43f:	a2 03 00 00 00       	mov    %al,0x3
}
 444:	90                   	nop
 445:	5d                   	pop    %ebp
 446:	c3                   	ret    

00000447 <keyboard_check_resend>:

int keyboard_check_resend(){
 447:	55                   	push   %ebp
 448:	89 e5                	mov    %esp,%ebp
	return _status.resend_res;
 44a:	0f b6 05 03 00 00 00 	movzbl 0x3,%eax
 451:	83 e0 01             	and    $0x1,%eax
 454:	0f b6 c0             	movzbl %al,%eax
}
 457:	5d                   	pop    %ebp
 458:	c3                   	ret    

00000459 <keyboard_self_test>:

int keyboard_self_test(){
 459:	55                   	push   %ebp
 45a:	89 e5                	mov    %esp,%ebp
 45c:	83 ec 08             	sub    $0x8,%esp

	// Send self test command.
	keyboard_ctrl_send_command(KEYBOARD_CTRL_CMD_SELF_TEST);
 45f:	83 ec 0c             	sub    $0xc,%esp
 462:	68 aa 00 00 00       	push   $0xaa
 467:	e8 fc ff ff ff       	call   468 <keyboard_self_test+0xf>
 46c:	83 c4 10             	add    $0x10,%esp

	// Wait until data is ready
	while(1){
		if(keyboard_ctrl_read_status() & KEYBOARD_CTRL_STATS_MASK_OUT_BUF){
 46f:	e8 fc ff ff ff       	call   470 <keyboard_self_test+0x17>
 474:	0f b6 c0             	movzbl %al,%eax
 477:	83 e0 01             	and    $0x1,%eax
 47a:	85 c0                	test   %eax,%eax
 47c:	75 02                	jne    480 <keyboard_self_test+0x27>
			break;
		}
	}
 47e:	eb ef                	jmp    46f <keyboard_self_test+0x16>
	keyboard_ctrl_send_command(KEYBOARD_CTRL_CMD_SELF_TEST);

	// Wait until data is ready
	while(1){
		if(keyboard_ctrl_read_status() & KEYBOARD_CTRL_STATS_MASK_OUT_BUF){
			break;
 480:	90                   	nop
		}
	}

	// If data is 0x55, self test was passed.
	return (keyboard_enc_read_buffer() == 0x55) ? 1 : 0;
 481:	e8 fc ff ff ff       	call   482 <keyboard_self_test+0x29>
 486:	3c 55                	cmp    $0x55,%al
 488:	0f 94 c0             	sete   %al
 48b:	0f b6 c0             	movzbl %al,%eax
}
 48e:	c9                   	leave  
 48f:	c3                   	ret    

00000490 <keyboard_get_diag_res>:

int keyboard_get_diag_res(){
 490:	55                   	push   %ebp
 491:	89 e5                	mov    %esp,%ebp
	return _status.diag_res;
 493:	0f b6 05 02 00 00 00 	movzbl 0x2,%eax
 49a:	c0 e8 07             	shr    $0x7,%al
 49d:	0f b6 c0             	movzbl %al,%eax
}
 4a0:	5d                   	pop    %ebp
 4a1:	c3                   	ret    

000004a2 <keyboard_get_bat_res>:

int keyboard_get_bat_res(){
 4a2:	55                   	push   %ebp
 4a3:	89 e5                	mov    %esp,%ebp
	return _status.bat_res;
 4a5:	0f b6 05 02 00 00 00 	movzbl 0x2,%eax
 4ac:	c0 e8 06             	shr    $0x6,%al
 4af:	83 e0 01             	and    $0x1,%eax
 4b2:	0f b6 c0             	movzbl %al,%eax
}
 4b5:	5d                   	pop    %ebp
 4b6:	c3                   	ret    

000004b7 <keyboard_get_last_scan>:

uint8_t keyboard_get_last_scan(){
 4b7:	55                   	push   %ebp
 4b8:	89 e5                	mov    %esp,%ebp
	return _scancode;
 4ba:	0f b6 05 00 00 00 00 	movzbl 0x0,%eax
}
 4c1:	5d                   	pop    %ebp
 4c2:	c3                   	ret    

000004c3 <keyboard_get_last_key>:

KEYCODE keyboard_get_last_key(){
 4c3:	55                   	push   %ebp
 4c4:	89 e5                	mov    %esp,%ebp
	// Check if scan code is valid
	return (_scancode!=INVALID_SCANCODE) ? 
 4c6:	0f b6 05 00 00 00 00 	movzbl 0x0,%eax
 4cd:	0f be c0             	movsbl %al,%eax
 4d0:	ba 00 00 00 00       	mov    $0x0,%edx
 4d5:	39 d0                	cmp    %edx,%eax
 4d7:	74 13                	je     4ec <keyboard_get_last_key+0x29>
		((KEYCODE)_keyboard_scancode_std [_scancode]) : 
 4d9:	0f b6 05 00 00 00 00 	movzbl 0x0,%eax
 4e0:	0f be c0             	movsbl %al,%eax
 4e3:	8b 04 85 00 00 00 00 	mov    0x0(,%eax,4),%eax
	return _scancode;
}

KEYCODE keyboard_get_last_key(){
	// Check if scan code is valid
	return (_scancode!=INVALID_SCANCODE) ? 
 4ea:	eb 05                	jmp    4f1 <keyboard_get_last_key+0x2e>
 4ec:	b8 12 40 00 00       	mov    $0x4012,%eax
		((KEYCODE)_keyboard_scancode_std [_scancode]) : 
		(KEY_UNKNOWN);
}
 4f1:	5d                   	pop    %ebp
 4f2:	c3                   	ret    

000004f3 <keyboard_discard_last_key>:

void keyboard_discard_last_key(){
 4f3:	55                   	push   %ebp
 4f4:	89 e5                	mov    %esp,%ebp
	_scancode = INVALID_SCANCODE;
 4f6:	b8 00 00 00 00       	mov    $0x0,%eax
 4fb:	a2 00 00 00 00       	mov    %al,0x0
}
 500:	90                   	nop
 501:	5d                   	pop    %ebp
 502:	c3                   	ret    

00000503 <keyboard_set_leds>:

void keyboard_set_leds(int num, int caps, int scroll){
 503:	55                   	push   %ebp
 504:	89 e5                	mov    %esp,%ebp
 506:	83 ec 18             	sub    $0x18,%esp
	uint8_t data = 0;
 509:	c6 45 f7 00          	movb   $0x0,-0x9(%ebp)

	if(num){
 50d:	83 7d 08 00          	cmpl   $0x0,0x8(%ebp)
 511:	74 04                	je     517 <keyboard_set_leds+0x14>
		data |= (1<<1);
 513:	80 4d f7 02          	orb    $0x2,-0x9(%ebp)
	}
	if(caps){
 517:	83 7d 0c 00          	cmpl   $0x0,0xc(%ebp)
 51b:	74 04                	je     521 <keyboard_set_leds+0x1e>
		data |= (1<<2);
 51d:	80 4d f7 04          	orb    $0x4,-0x9(%ebp)
	}
	if(scroll){
 521:	83 7d 10 00          	cmpl   $0x0,0x10(%ebp)
 525:	74 04                	je     52b <keyboard_set_leds+0x28>
		data |= (1<<0);
 527:	80 4d f7 01          	orb    $0x1,-0x9(%ebp)
	}

	keyboard_enc_send_command(KEYBOARD_ENC_CMD_SET_LED);
 52b:	83 ec 0c             	sub    $0xc,%esp
 52e:	68 ed 00 00 00       	push   $0xed
 533:	e8 fc ff ff ff       	call   534 <keyboard_set_leds+0x31>
 538:	83 c4 10             	add    $0x10,%esp
	keyboard_enc_send_command(data);
 53b:	0f b6 45 f7          	movzbl -0x9(%ebp),%eax
 53f:	83 ec 0c             	sub    $0xc,%esp
 542:	50                   	push   %eax
 543:	e8 fc ff ff ff       	call   544 <keyboard_set_leds+0x41>
 548:	83 c4 10             	add    $0x10,%esp
}
 54b:	90                   	nop
 54c:	c9                   	leave  
 54d:	c3                   	ret    

0000054e <keyboard_key_to_ascii>:

char keyboard_key_to_ascii(KEYCODE keycode){
 54e:	55                   	push   %ebp
 54f:	89 e5                	mov    %esp,%ebp
 551:	83 ec 10             	sub    $0x10,%esp

	uint8_t key = keycode;
 554:	8b 45 08             	mov    0x8(%ebp),%eax
 557:	88 45 ff             	mov    %al,-0x1(%ebp)

	if(isascii(key)){
 55a:	0f b6 45 ff          	movzbl -0x1(%ebp),%eax
 55e:	84 c0                	test   %al,%al
 560:	0f 88 10 01 00 00    	js     676 <keyboard_key_to_ascii+0x128>

		// TODO: change to XOR
		if(_status.shift || _status.caps_lock){
 566:	0f b6 05 02 00 00 00 	movzbl 0x2,%eax
 56d:	83 e0 08             	and    $0x8,%eax
 570:	84 c0                	test   %al,%al
 572:	75 0e                	jne    582 <keyboard_key_to_ascii+0x34>
 574:	0f b6 05 02 00 00 00 	movzbl 0x2,%eax
 57b:	83 e0 04             	and    $0x4,%eax
 57e:	84 c0                	test   %al,%al
 580:	74 10                	je     592 <keyboard_key_to_ascii+0x44>
			// Check if key is in a-z range
			if(key >= 'a' && key <= 'z'){
 582:	80 7d ff 60          	cmpb   $0x60,-0x1(%ebp)
 586:	76 0a                	jbe    592 <keyboard_key_to_ascii+0x44>
 588:	80 7d ff 7a          	cmpb   $0x7a,-0x1(%ebp)
 58c:	77 04                	ja     592 <keyboard_key_to_ascii+0x44>
				key -= 32;
 58e:	80 6d ff 20          	subb   $0x20,-0x1(%ebp)
			}
		}

		if(_status.shift && !_status.caps_lock){
 592:	0f b6 05 02 00 00 00 	movzbl 0x2,%eax
 599:	83 e0 08             	and    $0x8,%eax
 59c:	84 c0                	test   %al,%al
 59e:	0f 84 cc 00 00 00    	je     670 <keyboard_key_to_ascii+0x122>
 5a4:	0f b6 05 02 00 00 00 	movzbl 0x2,%eax
 5ab:	83 e0 04             	and    $0x4,%eax
 5ae:	84 c0                	test   %al,%al
 5b0:	0f 85 ba 00 00 00    	jne    670 <keyboard_key_to_ascii+0x122>
			if (key >= '0' && key <= '9'){
 5b6:	80 7d ff 2f          	cmpb   $0x2f,-0x1(%ebp)
 5ba:	76 5c                	jbe    618 <keyboard_key_to_ascii+0xca>
 5bc:	80 7d ff 39          	cmpb   $0x39,-0x1(%ebp)
 5c0:	77 56                	ja     618 <keyboard_key_to_ascii+0xca>
				switch (key) {
 5c2:	0f b6 45 ff          	movzbl -0x1(%ebp),%eax
 5c6:	83 e8 30             	sub    $0x30,%eax
 5c9:	83 f8 09             	cmp    $0x9,%eax
 5cc:	0f 87 9d 00 00 00    	ja     66f <keyboard_key_to_ascii+0x121>
 5d2:	8b 04 85 20 00 00 00 	mov    0x20(,%eax,4),%eax
 5d9:	ff e0                	jmp    *%eax

					case '0':
						key = KEY_RIGHTPARENTHESIS;
 5db:	c6 45 ff 29          	movb   $0x29,-0x1(%ebp)
						break;
 5df:	eb 35                	jmp    616 <keyboard_key_to_ascii+0xc8>
					case '1':
						key = KEY_EXCLAMATION;
 5e1:	c6 45 ff 21          	movb   $0x21,-0x1(%ebp)
						break;
 5e5:	eb 2f                	jmp    616 <keyboard_key_to_ascii+0xc8>
					case '2':
						key = KEY_AT;
 5e7:	c6 45 ff 40          	movb   $0x40,-0x1(%ebp)
						break;
 5eb:	eb 29                	jmp    616 <keyboard_key_to_ascii+0xc8>
					case '3':
						key = KEY_EXCLAMATION;
 5ed:	c6 45 ff 21          	movb   $0x21,-0x1(%ebp)
						break;
 5f1:	eb 23                	jmp    616 <keyboard_key_to_ascii+0xc8>
					case '4':
						key = KEY_HASH;
 5f3:	c6 45 ff 23          	movb   $0x23,-0x1(%ebp)
						break;
 5f7:	eb 1d                	jmp    616 <keyboard_key_to_ascii+0xc8>
					case '5':
						key = KEY_PERCENT;
 5f9:	c6 45 ff 25          	movb   $0x25,-0x1(%ebp)
						break;
 5fd:	eb 17                	jmp    616 <keyboard_key_to_ascii+0xc8>
					case '6':
						key = KEY_CARRET;
 5ff:	c6 45 ff 5e          	movb   $0x5e,-0x1(%ebp)
						break;
 603:	eb 11                	jmp    616 <keyboard_key_to_ascii+0xc8>
					case '7':
						key = KEY_AMPERSAND;
 605:	c6 45 ff 26          	movb   $0x26,-0x1(%ebp)
						break;
 609:	eb 0b                	jmp    616 <keyboard_key_to_ascii+0xc8>
					case '8':
						key = KEY_ASTERISK;
 60b:	c6 45 ff 2a          	movb   $0x2a,-0x1(%ebp)
						break;
 60f:	eb 05                	jmp    616 <keyboard_key_to_ascii+0xc8>
					case '9':
						key = KEY_LEFTPARENTHESIS;
 611:	c6 45 ff 28          	movb   $0x28,-0x1(%ebp)
						break;
 615:	90                   	nop
				}
			} else {
 616:	eb 57                	jmp    66f <keyboard_key_to_ascii+0x121>
				switch (key) {
 618:	0f b6 45 ff          	movzbl -0x1(%ebp),%eax
 61c:	83 e8 27             	sub    $0x27,%eax
 61f:	83 f8 39             	cmp    $0x39,%eax
 622:	77 4c                	ja     670 <keyboard_key_to_ascii+0x122>
 624:	8b 04 85 48 00 00 00 	mov    0x48(,%eax,4),%eax
 62b:	ff e0                	jmp    *%eax
					case KEY_COMMA:
						key = KEY_LESS;
 62d:	c6 45 ff 3c          	movb   $0x3c,-0x1(%ebp)
						break;
 631:	eb 3d                	jmp    670 <keyboard_key_to_ascii+0x122>

					case KEY_DOT:
						key = KEY_GREATER;
 633:	c6 45 ff 3e          	movb   $0x3e,-0x1(%ebp)
						break;
 637:	eb 37                	jmp    670 <keyboard_key_to_ascii+0x122>

					case KEY_SLASH:
						key = KEY_QUESTION;
 639:	c6 45 ff 3f          	movb   $0x3f,-0x1(%ebp)
						break;
 63d:	eb 31                	jmp    670 <keyboard_key_to_ascii+0x122>

					case KEY_SEMICOLON:
						key = KEY_COLON;
 63f:	c6 45 ff 3a          	movb   $0x3a,-0x1(%ebp)
						break;
 643:	eb 2b                	jmp    670 <keyboard_key_to_ascii+0x122>

					case KEY_QUOTE:
						key = KEY_QUOTEDOUBLE;
 645:	c6 45 ff 22          	movb   $0x22,-0x1(%ebp)
						break;
 649:	eb 25                	jmp    670 <keyboard_key_to_ascii+0x122>

					case KEY_LEFTBRACKET :
						key = KEY_LEFTCURL;
 64b:	c6 45 ff 7b          	movb   $0x7b,-0x1(%ebp)
						break;
 64f:	eb 1f                	jmp    670 <keyboard_key_to_ascii+0x122>

					case KEY_RIGHTBRACKET :
						key = KEY_RIGHTCURL;
 651:	c6 45 ff 7d          	movb   $0x7d,-0x1(%ebp)
						break;
 655:	eb 19                	jmp    670 <keyboard_key_to_ascii+0x122>

					case KEY_GRAVE:
						key = KEY_TILDE;
 657:	c6 45 ff 7e          	movb   $0x7e,-0x1(%ebp)
						break;
 65b:	eb 13                	jmp    670 <keyboard_key_to_ascii+0x122>

					case KEY_MINUS:
						key = KEY_UNDERSCORE;
 65d:	c6 45 ff 5f          	movb   $0x5f,-0x1(%ebp)
						break;
 661:	eb 0d                	jmp    670 <keyboard_key_to_ascii+0x122>

					case KEY_PLUS:
						key = KEY_EQUAL;
 663:	c6 45 ff 3d          	movb   $0x3d,-0x1(%ebp)
						break;
 667:	eb 07                	jmp    670 <keyboard_key_to_ascii+0x122>

					case KEY_BACKSLASH:
						key = KEY_BAR;
 669:	c6 45 ff 7c          	movb   $0x7c,-0x1(%ebp)
						break;
 66d:	eb 01                	jmp    670 <keyboard_key_to_ascii+0x122>
						break;
					case '9':
						key = KEY_LEFTPARENTHESIS;
						break;
				}
			} else {
 66f:	90                   	nop
						break;
				}
			}
		}

		return key;
 670:	0f b6 45 ff          	movzbl -0x1(%ebp),%eax
 674:	eb 05                	jmp    67b <keyboard_key_to_ascii+0x12d>
	}
	// Scan code is not an ascii character
	return 0;
 676:	b8 00 00 00 00       	mov    $0x0,%eax
}
 67b:	c9                   	leave  
 67c:	c3                   	ret    

0000067d <keyboard_disable>:

void keyboard_disable(){
 67d:	55                   	push   %ebp
 67e:	89 e5                	mov    %esp,%ebp
 680:	83 ec 08             	sub    $0x8,%esp
	keyboard_ctrl_send_command(KEYBOARD_CTRL_CMD_DISABLE);
 683:	83 ec 0c             	sub    $0xc,%esp
 686:	68 ad 00 00 00       	push   $0xad
 68b:	e8 fc ff ff ff       	call   68c <keyboard_disable+0xf>
 690:	83 c4 10             	add    $0x10,%esp
	_status.enabled = 0;
 693:	0f b6 05 03 00 00 00 	movzbl 0x3,%eax
 69a:	83 e0 fd             	and    $0xfffffffd,%eax
 69d:	a2 03 00 00 00       	mov    %al,0x3
}
 6a2:	90                   	nop
 6a3:	c9                   	leave  
 6a4:	c3                   	ret    

000006a5 <keyboard_enable>:

void keyboard_enable(){
 6a5:	55                   	push   %ebp
 6a6:	89 e5                	mov    %esp,%ebp
 6a8:	83 ec 08             	sub    $0x8,%esp
	keyboard_ctrl_send_command(KEYBOARD_CTRL_CMD_ENABLE);
 6ab:	83 ec 0c             	sub    $0xc,%esp
 6ae:	68 ae 00 00 00       	push   $0xae
 6b3:	e8 fc ff ff ff       	call   6b4 <keyboard_enable+0xf>
 6b8:	83 c4 10             	add    $0x10,%esp
	_status.enabled = 1;
 6bb:	0f b6 05 03 00 00 00 	movzbl 0x3,%eax
 6c2:	83 c8 02             	or     $0x2,%eax
 6c5:	a2 03 00 00 00       	mov    %al,0x3
}
 6ca:	90                   	nop
 6cb:	c9                   	leave  
 6cc:	c3                   	ret    

000006cd <keyboard_is_disabled>:

int keyboard_is_disabled(){
 6cd:	55                   	push   %ebp
 6ce:	89 e5                	mov    %esp,%ebp
	return (_status.enabled) ? 0 : 1;
 6d0:	0f b6 05 03 00 00 00 	movzbl 0x3,%eax
 6d7:	83 e0 02             	and    $0x2,%eax
 6da:	84 c0                	test   %al,%al
 6dc:	0f 94 c0             	sete   %al
 6df:	0f b6 c0             	movzbl %al,%eax
}
 6e2:	5d                   	pop    %ebp
 6e3:	c3                   	ret    

000006e4 <keyboard_reset_system>:

void keyboard_reset_system(){
 6e4:	55                   	push   %ebp
 6e5:	89 e5                	mov    %esp,%ebp
 6e7:	83 ec 08             	sub    $0x8,%esp
	keyboard_ctrl_send_command(KEYBOARD_CTRL_CMD_WRITE_OUT_PORT);
 6ea:	83 ec 0c             	sub    $0xc,%esp
 6ed:	68 d1 00 00 00       	push   $0xd1
 6f2:	e8 fc ff ff ff       	call   6f3 <keyboard_reset_system+0xf>
 6f7:	83 c4 10             	add    $0x10,%esp
	keyboard_enc_send_command(0xFE);
 6fa:	83 ec 0c             	sub    $0xc,%esp
 6fd:	68 fe 00 00 00       	push   $0xfe
 702:	e8 fc ff ff ff       	call   703 <keyboard_reset_system+0x1f>
 707:	83 c4 10             	add    $0x10,%esp
}
 70a:	90                   	nop
 70b:	c9                   	leave  
 70c:	c3                   	ret    

0000070d <keyboard_install>:

void keyboard_install(int irq){
 70d:	55                   	push   %ebp
 70e:	89 e5                	mov    %esp,%ebp
 710:	83 ec 08             	sub    $0x8,%esp

	setvect(irq, i86_keyboard_irq);
 713:	83 ec 08             	sub    $0x8,%esp
 716:	68 00 00 00 00       	push   $0x0
 71b:	ff 75 08             	pushl  0x8(%ebp)
 71e:	e8 fc ff ff ff       	call   71f <keyboard_install+0x12>
 723:	83 c4 10             	add    $0x10,%esp

	_status.bat_res = 1;
 726:	0f b6 05 02 00 00 00 	movzbl 0x2,%eax
 72d:	83 c8 40             	or     $0x40,%eax
 730:	a2 02 00 00 00       	mov    %al,0x2
	_scancode = 0;
 735:	c6 05 00 00 00 00 00 	movb   $0x0,0x0

	_status.num_lock = 0;
 73c:	0f b6 05 02 00 00 00 	movzbl 0x2,%eax
 743:	83 e0 fe             	and    $0xfffffffe,%eax
 746:	a2 02 00 00 00       	mov    %al,0x2
	_status.caps_lock = 0;
 74b:	0f b6 05 02 00 00 00 	movzbl 0x2,%eax
 752:	83 e0 fb             	and    $0xfffffffb,%eax
 755:	a2 02 00 00 00       	mov    %al,0x2
	_status.scroll_lock = 0;
 75a:	0f b6 05 02 00 00 00 	movzbl 0x2,%eax
 761:	83 e0 fd             	and    $0xfffffffd,%eax
 764:	a2 02 00 00 00       	mov    %al,0x2

	keyboard_set_leds(0, 0, 0);
 769:	83 ec 04             	sub    $0x4,%esp
 76c:	6a 00                	push   $0x0
 76e:	6a 00                	push   $0x0
 770:	6a 00                	push   $0x0
 772:	e8 fc ff ff ff       	call   773 <keyboard_install+0x66>
 777:	83 c4 10             	add    $0x10,%esp

	_status.shift = 0;
 77a:	0f b6 05 02 00 00 00 	movzbl 0x2,%eax
 781:	83 e0 f7             	and    $0xfffffff7,%eax
 784:	a2 02 00 00 00       	mov    %al,0x2
	_status.alt = 0;
 789:	0f b6 05 02 00 00 00 	movzbl 0x2,%eax
 790:	83 e0 ef             	and    $0xffffffef,%eax
 793:	a2 02 00 00 00       	mov    %al,0x2
	_status.ctrl = 0;
 798:	0f b6 05 02 00 00 00 	movzbl 0x2,%eax
 79f:	83 e0 df             	and    $0xffffffdf,%eax
 7a2:	a2 02 00 00 00       	mov    %al,0x2
}
 7a7:	90                   	nop
 7a8:	c9                   	leave  
 7a9:	c3                   	ret    

000007aa <keyboard_set_autorepeat>:

void keyboard_set_autorepeat(uint8_t rate, uint8_t delay){
 7aa:	55                   	push   %ebp
 7ab:	89 e5                	mov    %esp,%ebp
 7ad:	83 ec 28             	sub    $0x28,%esp
 7b0:	8b 55 08             	mov    0x8(%ebp),%edx
 7b3:	8b 45 0c             	mov    0xc(%ebp),%eax
 7b6:	88 55 e4             	mov    %dl,-0x1c(%ebp)
 7b9:	88 45 e0             	mov    %al,-0x20(%ebp)
	
	// D - Delay
	// R - Rate
	// 0DDRRRRR 

	uint8_t data = rate & 0x1F;	
 7bc:	0f b6 45 e4          	movzbl -0x1c(%ebp),%eax
 7c0:	83 e0 1f             	and    $0x1f,%eax
 7c3:	88 45 f7             	mov    %al,-0x9(%ebp)
	data |= (delay & 0x03)<<5;
 7c6:	0f b6 45 e0          	movzbl -0x20(%ebp),%eax
 7ca:	83 e0 03             	and    $0x3,%eax
 7cd:	c1 e0 05             	shl    $0x5,%eax
 7d0:	89 c2                	mov    %eax,%edx
 7d2:	0f b6 45 f7          	movzbl -0x9(%ebp),%eax
 7d6:	09 d0                	or     %edx,%eax
 7d8:	88 45 f7             	mov    %al,-0x9(%ebp)

	keyboard_enc_send_command(KEYBOARD_ENC_CMD_AUTODELAY);
 7db:	83 ec 0c             	sub    $0xc,%esp
 7de:	68 f3 00 00 00       	push   $0xf3
 7e3:	e8 fc ff ff ff       	call   7e4 <keyboard_set_autorepeat+0x3a>
 7e8:	83 c4 10             	add    $0x10,%esp
	keyboard_enc_send_command(data);
 7eb:	0f b6 45 f7          	movzbl -0x9(%ebp),%eax
 7ef:	83 ec 0c             	sub    $0xc,%esp
 7f2:	50                   	push   %eax
 7f3:	e8 fc ff ff ff       	call   7f4 <keyboard_set_autorepeat+0x4a>
 7f8:	83 c4 10             	add    $0x10,%esp
 7fb:	90                   	nop
 7fc:	c9                   	leave  
 7fd:	c3                   	ret    

kmalloc.o:     file format elf32-i386


Disassembly of section .text:

00000000 <kmalloc>:
#include <lib/string.h>

#include <mm/kernel_heap.h>

void* kmalloc(size_t size){
   0:	55                   	push   %ebp
   1:	89 e5                	mov    %esp,%ebp
   3:	83 ec 08             	sub    $0x8,%esp
	return kernel_malloc(size);
   6:	83 ec 0c             	sub    $0xc,%esp
   9:	ff 75 08             	pushl  0x8(%ebp)
   c:	e8 fc ff ff ff       	call   d <kmalloc+0xd>
  11:	83 c4 10             	add    $0x10,%esp
}
  14:	c9                   	leave  
  15:	c3                   	ret    

00000016 <kmalloc_a>:

void* kmalloc_a(size_t size, size_t alignment){
  16:	55                   	push   %ebp
  17:	89 e5                	mov    %esp,%ebp
  19:	83 ec 08             	sub    $0x8,%esp
	return kernel_malloc_a(size, alignment);
  1c:	83 ec 08             	sub    $0x8,%esp
  1f:	ff 75 0c             	pushl  0xc(%ebp)
  22:	ff 75 08             	pushl  0x8(%ebp)
  25:	e8 fc ff ff ff       	call   26 <kmalloc_a+0x10>
  2a:	83 c4 10             	add    $0x10,%esp
}
  2d:	c9                   	leave  
  2e:	c3                   	ret    

0000002f <kmalloc_c>:

void* kmalloc_c(size_t size, const char* comment){
  2f:	55                   	push   %ebp
  30:	89 e5                	mov    %esp,%ebp
  32:	83 ec 08             	sub    $0x8,%esp
	return kernel_malloc_c(size, comment);
  35:	83 ec 08             	sub    $0x8,%esp
  38:	ff 75 0c             	pushl  0xc(%ebp)
  3b:	ff 75 08             	pushl  0x8(%ebp)
  3e:	e8 fc ff ff ff       	call   3f <kmalloc_c+0x10>
  43:	83 c4 10             	add    $0x10,%esp
}
  46:	c9                   	leave  
  47:	c3                   	ret    

00000048 <kmalloc_ac>:

void* kmalloc_ac(size_t size, size_t alignment, const char* comment){
  48:	55                   	push   %ebp
  49:	89 e5                	mov    %esp,%ebp
  4b:	83 ec 08             	sub    $0x8,%esp
	return kernel_malloc_ac(size, alignment, comment);
  4e:	83 ec 04             	sub    $0x4,%esp
  51:	ff 75 10             	pushl  0x10(%ebp)
  54:	ff 75 0c             	pushl  0xc(%ebp)
  57:	ff 75 08             	pushl  0x8(%ebp)
  5a:	e8 fc ff ff ff       	call   5b <kmalloc_ac+0x13>
  5f:	83 c4 10             	add    $0x10,%esp
}
  62:	c9                   	leave  
  63:	c3                   	ret    

00000064 <kfree>:

void kfree(void* addr){
  64:	55                   	push   %ebp
  65:	89 e5                	mov    %esp,%ebp
  67:	83 ec 08             	sub    $0x8,%esp
	kernel_free(addr);
  6a:	83 ec 0c             	sub    $0xc,%esp
  6d:	ff 75 08             	pushl  0x8(%ebp)
  70:	e8 fc ff ff ff       	call   71 <kfree+0xd>
  75:	83 c4 10             	add    $0x10,%esp
}
  78:	90                   	nop
  79:	c9                   	leave  
  7a:	c3                   	ret    

loader.o:     file format elf32-i386


Disassembly of section .text:

00000000 <MultiBootHeader>:
   0:	02 b0 ad 1b 03 00    	add    0x31bad(%eax),%dh
   6:	00 00                	add    %al,(%eax)
   8:	fb                   	sti    
   9:	4f                   	dec    %edi
   a:	52                   	push   %edx
   b:	e4 b9                	in     $0xb9,%al

0000000c <_loader>:
   c:	b9 00 00 00 40       	mov    $0x40000000,%ecx
  11:	0f 22 d9             	mov    %ecx,%cr3
  14:	0f 20 e1             	mov    %cr4,%ecx
  17:	83 c9 10             	or     $0x10,%ecx
  1a:	0f 22 e1             	mov    %ecx,%cr4
  1d:	0f 20 c1             	mov    %cr0,%ecx
  20:	81 c9 00 00 00 80    	or     $0x80000000,%ecx
  26:	0f 22 c1             	mov    %ecx,%cr0
  29:	8d 0d 31 00 00 00    	lea    0x31,%ecx
  2f:	ff e1                	jmp    *%ecx

00000031 <StartInHigherHalf>:
  31:	bc 00 40 00 00       	mov    $0x4000,%esp
  36:	50                   	push   %eax
  37:	81 c3 00 00 00 c0    	add    $0xc0000000,%ebx
  3d:	53                   	push   %ebx
  3e:	e8 fc ff ff ff       	call   3f <StartInHigherHalf+0xe>
  43:	fa                   	cli    
  44:	f4                   	hlt    

main.o:     file format elf32-i386


Disassembly of section .text:

00000000 <int32_test>:
// tell compiler our int32 function is external
extern void int32(unsigned char intnum, regs16_t *regs);
 
// int32 test
void int32_test()
{
   0:	55                   	push   %ebp
   1:	89 e5                	mov    %esp,%ebp
   3:	83 ec 28             	sub    $0x28,%esp
    regs16_t regs;
     
    // switch to 320x200x256 graphics mode
    // regs.ax = 0x0013;

    regs.ax = 0x4F02;
   6:	66 c7 45 e8 02 4f    	movw   $0x4f02,-0x18(%ebp)
    regs.bx = 0x0118;
   c:	66 c7 45 e2 18 01    	movw   $0x118,-0x1e(%ebp)
    int32(0x10, &regs);
  12:	83 ec 08             	sub    $0x8,%esp
  15:	8d 45 da             	lea    -0x26(%ebp),%eax
  18:	50                   	push   %eax
  19:	6a 10                	push   $0x10
  1b:	e8 fc ff ff ff       	call   1c <int32_test+0x1c>
  20:	83 c4 10             	add    $0x10,%esp
     
    // full screen with blue color (1)
    memset((char *)0xA0000, 1, (320*200));
  23:	83 ec 04             	sub    $0x4,%esp
  26:	68 00 fa 00 00       	push   $0xfa00
  2b:	6a 01                	push   $0x1
  2d:	68 00 00 0a 00       	push   $0xa0000
  32:	e8 fc ff ff ff       	call   33 <int32_test+0x33>
  37:	83 c4 10             	add    $0x10,%esp
     
    // draw horizontal line from 100,80 to 100,240 in multiple colors
    for(y = 0; y < 200; y++)
  3a:	c7 45 f4 00 00 00 00 	movl   $0x0,-0xc(%ebp)
  41:	eb 29                	jmp    6c <int32_test+0x6c>
        memset((char *)0xA0000 + (y*320+80), 3, 160);
  43:	8b 55 f4             	mov    -0xc(%ebp),%edx
  46:	89 d0                	mov    %edx,%eax
  48:	c1 e0 02             	shl    $0x2,%eax
  4b:	01 d0                	add    %edx,%eax
  4d:	c1 e0 06             	shl    $0x6,%eax
  50:	05 50 00 0a 00       	add    $0xa0050,%eax
  55:	83 ec 04             	sub    $0x4,%esp
  58:	68 a0 00 00 00       	push   $0xa0
  5d:	6a 03                	push   $0x3
  5f:	50                   	push   %eax
  60:	e8 fc ff ff ff       	call   61 <int32_test+0x61>
  65:	83 c4 10             	add    $0x10,%esp
     
    // full screen with blue color (1)
    memset((char *)0xA0000, 1, (320*200));
     
    // draw horizontal line from 100,80 to 100,240 in multiple colors
    for(y = 0; y < 200; y++)
  68:	83 45 f4 01          	addl   $0x1,-0xc(%ebp)
  6c:	81 7d f4 c7 00 00 00 	cmpl   $0xc7,-0xc(%ebp)
  73:	7e ce                	jle    43 <int32_test+0x43>
        memset((char *)0xA0000 + (y*320+80), 3, 160);
     
    // wait for key
    regs.ax = 0x0000;
  75:	66 c7 45 e8 00 00    	movw   $0x0,-0x18(%ebp)
    int32(0x16, &regs);
  7b:	83 ec 08             	sub    $0x8,%esp
  7e:	8d 45 da             	lea    -0x26(%ebp),%eax
  81:	50                   	push   %eax
  82:	6a 16                	push   $0x16
  84:	e8 fc ff ff ff       	call   85 <int32_test+0x85>
  89:	83 c4 10             	add    $0x10,%esp
     
    // switch to 80x25x16 text mode
    regs.ax = 0x0003;
  8c:	66 c7 45 e8 03 00    	movw   $0x3,-0x18(%ebp)
    int32(0x10, &regs);
  92:	83 ec 08             	sub    $0x8,%esp
  95:	8d 45 da             	lea    -0x26(%ebp),%eax
  98:	50                   	push   %eax
  99:	6a 10                	push   $0x10
  9b:	e8 fc ff ff ff       	call   9c <int32_test+0x9c>
  a0:	83 c4 10             	add    $0x10,%esp
}
  a3:	90                   	nop
  a4:	c9                   	leave  
  a5:	c3                   	ret    

000000a6 <init>:

void init(multiboot_info_t* mb_ptr){
  a6:	55                   	push   %ebp
  a7:	89 e5                	mov    %esp,%ebp
  a9:	83 ec 28             	sub    $0x28,%esp

	//asm volatile("xchgw %bx,%bx");

	clearScreen();
  ac:	e8 fc ff ff ff       	call   ad <init+0x7>

	printf("Multiboot at %#p\n", mb_ptr);
  b1:	83 ec 08             	sub    $0x8,%esp
  b4:	ff 75 08             	pushl  0x8(%ebp)
  b7:	68 35 00 00 00       	push   $0x35
  bc:	e8 fc ff ff ff       	call   bd <init+0x17>
  c1:	83 c4 10             	add    $0x10,%esp
	
	printf("OS kernel booting (%s)...\nPlease wait...\n", __FUNCTION__);
  c4:	83 ec 08             	sub    $0x8,%esp
  c7:	68 c8 02 00 00       	push   $0x2c8
  cc:	68 48 00 00 00       	push   $0x48
  d1:	e8 fc ff ff ff       	call   d2 <init+0x2c>
  d6:	83 c4 10             	add    $0x10,%esp

	printf("Initiating COM1 serial port\n");
  d9:	83 ec 0c             	sub    $0xc,%esp
  dc:	68 72 00 00 00       	push   $0x72
  e1:	e8 fc ff ff ff       	call   e2 <init+0x3c>
  e6:	83 c4 10             	add    $0x10,%esp

	init_serial(COM1, SERIAL_BAUD_115200, 8, 1, SERIAL_PARITY_NONE);
  e9:	83 ec 0c             	sub    $0xc,%esp
  ec:	6a 00                	push   $0x0
  ee:	6a 01                	push   $0x1
  f0:	6a 08                	push   $0x8
  f2:	6a 01                	push   $0x1
  f4:	6a 00                	push   $0x0
  f6:	e8 fc ff ff ff       	call   f7 <init+0x51>
  fb:	83 c4 20             	add    $0x20,%esp

	printf("Initializing HAL\n");
  fe:	83 ec 0c             	sub    $0xc,%esp
 101:	68 8f 00 00 00       	push   $0x8f
 106:	e8 fc ff ff ff       	call   107 <init+0x61>
 10b:	83 c4 10             	add    $0x10,%esp

	hal_initialize();
 10e:	e8 fc ff ff ff       	call   10f <init+0x69>

	printf("HAL initialization done!\n");
 113:	83 ec 0c             	sub    $0xc,%esp
 116:	68 a1 00 00 00       	push   $0xa1
 11b:	e8 fc ff ff ff       	call   11c <init+0x76>
 120:	83 c4 10             	add    $0x10,%esp

	setvect (0,(void (*)(void))divide_by_zero_fault);
 123:	83 ec 08             	sub    $0x8,%esp
 126:	68 00 00 00 00       	push   $0x0
 12b:	6a 00                	push   $0x0
 12d:	e8 fc ff ff ff       	call   12e <init+0x88>
 132:	83 c4 10             	add    $0x10,%esp
	setvect (1,(void (*)(void))single_step_trap);
 135:	83 ec 08             	sub    $0x8,%esp
 138:	68 00 00 00 00       	push   $0x0
 13d:	6a 01                	push   $0x1
 13f:	e8 fc ff ff ff       	call   140 <init+0x9a>
 144:	83 c4 10             	add    $0x10,%esp
	setvect (2,(void (*)(void))nmi_trap);
 147:	83 ec 08             	sub    $0x8,%esp
 14a:	68 00 00 00 00       	push   $0x0
 14f:	6a 02                	push   $0x2
 151:	e8 fc ff ff ff       	call   152 <init+0xac>
 156:	83 c4 10             	add    $0x10,%esp
	setvect (3,(void (*)(void))breakpoint_trap);
 159:	83 ec 08             	sub    $0x8,%esp
 15c:	68 00 00 00 00       	push   $0x0
 161:	6a 03                	push   $0x3
 163:	e8 fc ff ff ff       	call   164 <init+0xbe>
 168:	83 c4 10             	add    $0x10,%esp
	setvect (4,(void (*)(void))overflow_trap);
 16b:	83 ec 08             	sub    $0x8,%esp
 16e:	68 00 00 00 00       	push   $0x0
 173:	6a 04                	push   $0x4
 175:	e8 fc ff ff ff       	call   176 <init+0xd0>
 17a:	83 c4 10             	add    $0x10,%esp
	setvect (5,(void (*)(void))bounds_check_fault);
 17d:	83 ec 08             	sub    $0x8,%esp
 180:	68 00 00 00 00       	push   $0x0
 185:	6a 05                	push   $0x5
 187:	e8 fc ff ff ff       	call   188 <init+0xe2>
 18c:	83 c4 10             	add    $0x10,%esp
	setvect (6,(void (*)(void))invalid_opcode_fault);
 18f:	83 ec 08             	sub    $0x8,%esp
 192:	68 00 00 00 00       	push   $0x0
 197:	6a 06                	push   $0x6
 199:	e8 fc ff ff ff       	call   19a <init+0xf4>
 19e:	83 c4 10             	add    $0x10,%esp
	setvect (7,(void (*)(void))no_device_fault);
 1a1:	83 ec 08             	sub    $0x8,%esp
 1a4:	68 00 00 00 00       	push   $0x0
 1a9:	6a 07                	push   $0x7
 1ab:	e8 fc ff ff ff       	call   1ac <init+0x106>
 1b0:	83 c4 10             	add    $0x10,%esp
	setvect (8,(void (*)(void))double_fault_abort);
 1b3:	83 ec 08             	sub    $0x8,%esp
 1b6:	68 00 00 00 00       	push   $0x0
 1bb:	6a 08                	push   $0x8
 1bd:	e8 fc ff ff ff       	call   1be <init+0x118>
 1c2:	83 c4 10             	add    $0x10,%esp
	setvect (10,(void (*)(void))invalid_tss_fault);
 1c5:	83 ec 08             	sub    $0x8,%esp
 1c8:	68 00 00 00 00       	push   $0x0
 1cd:	6a 0a                	push   $0xa
 1cf:	e8 fc ff ff ff       	call   1d0 <init+0x12a>
 1d4:	83 c4 10             	add    $0x10,%esp
	setvect (11,(void (*)(void))no_segment_fault);
 1d7:	83 ec 08             	sub    $0x8,%esp
 1da:	68 00 00 00 00       	push   $0x0
 1df:	6a 0b                	push   $0xb
 1e1:	e8 fc ff ff ff       	call   1e2 <init+0x13c>
 1e6:	83 c4 10             	add    $0x10,%esp
	setvect (12,(void (*)(void))stack_fault);
 1e9:	83 ec 08             	sub    $0x8,%esp
 1ec:	68 00 00 00 00       	push   $0x0
 1f1:	6a 0c                	push   $0xc
 1f3:	e8 fc ff ff ff       	call   1f4 <init+0x14e>
 1f8:	83 c4 10             	add    $0x10,%esp
	setvect (13,(void (*)(void))general_protection_fault);
 1fb:	83 ec 08             	sub    $0x8,%esp
 1fe:	68 00 00 00 00       	push   $0x0
 203:	6a 0d                	push   $0xd
 205:	e8 fc ff ff ff       	call   206 <init+0x160>
 20a:	83 c4 10             	add    $0x10,%esp
	setvect (14,(void (*)(void))page_fault);
 20d:	83 ec 08             	sub    $0x8,%esp
 210:	68 00 00 00 00       	push   $0x0
 215:	6a 0e                	push   $0xe
 217:	e8 fc ff ff ff       	call   218 <init+0x172>
 21c:	83 c4 10             	add    $0x10,%esp
	setvect (16,(void (*)(void))fpu_fault);
 21f:	83 ec 08             	sub    $0x8,%esp
 222:	68 00 00 00 00       	push   $0x0
 227:	6a 10                	push   $0x10
 229:	e8 fc ff ff ff       	call   22a <init+0x184>
 22e:	83 c4 10             	add    $0x10,%esp
	setvect (17,(void (*)(void))alignment_check_fault);
 231:	83 ec 08             	sub    $0x8,%esp
 234:	68 00 00 00 00       	push   $0x0
 239:	6a 11                	push   $0x11
 23b:	e8 fc ff ff ff       	call   23c <init+0x196>
 240:	83 c4 10             	add    $0x10,%esp
	setvect (18,(void (*)(void))machine_check_abort);
 243:	83 ec 08             	sub    $0x8,%esp
 246:	68 00 00 00 00       	push   $0x0
 24b:	6a 12                	push   $0x12
 24d:	e8 fc ff ff ff       	call   24e <init+0x1a8>
 252:	83 c4 10             	add    $0x10,%esp
